 8000  D8        CLD  
 8001  A9 30     LDA  #$30
 8003  85 10     STA  $10
 8005  A9 E9     LDA  #$E9
 8007  85 11     STA  $11
 8009  A2 21     LDX  #$21
 800B  BD C5 80  LDA  $80C5, X
 800E  95 00     STA  $00, X
 8010  CA        DEX  
 8011  D0 F8     BNE  $800B
 8013  AD C5 80  LDA  $80C5
 8016  85 00     STA  $00
 8018  A2 FF     LDX  #$FF
 801A  9A        TXS  
 801B  A2 78     LDX  #$78
 801D  A0 31     LDY  #$31
 801F  A9 00     LDA  #$00
 8021  B9 E7 80  LDA  $80E7, Y
 8024  91 1E     STA  ($1E), Y
 8026  88        DEY  
 8027  D0 F8     BNE  $8021
 8029  AD E7 80  LDA  $80E7
 802C  92 1E     STA  ($1E)
 802E  20 53 89  JSR  $8953
 8031  CA        DEX  
 8032  CA        DEX  
 8033  CA        DEX  
 8034  CA        DEX  
 8035  A9 CA     LDA  #$CA
 8037  95 02     STA  $02, X
 8039  A9 B9     LDA  #$B9
 803B  95 03     STA  $03, X
 803D  A9 ED     LDA  #$ED
 803F  38        SEC  
 8040  E9 CA     SBC  #$CA
 8042  95 00     STA  $00, X
 8044  A9 B9     LDA  #$B9
 8046  E9 B9     SBC  #$B9
 8048  95 01     STA  $01, X
 804A  20 C5 90  JSR  $90C5
 804D  CA        DEX  
 804E  CA        DEX  
 804F  CA        DEX  
 8050  CA        DEX  
 8051  A9 ED     LDA  #$ED
 8053  95 02     STA  $02, X
 8055  A9 B9     LDA  #$B9
 8057  95 03     STA  $03, X
 8059  A9 24     LDA  #$24
 805B  38        SEC  
 805C  E9 ED     SBC  #$ED
 805E  95 00     STA  $00, X
 8060  A9 C0     LDA  #$C0
 8062  E9 B9     SBC  #$B9
 8064  95 01     STA  $01, X
 8066  20 C5 90  JSR  $90C5
 8069  9C 00 7C  STZ  $7C00
 806C  9C 80 7C  STZ  $7C80
 806F  9C 00 7D  STZ  $7D00
 8072  9C 80 7D  STZ  $7D80
 8075  9C 00 7E  STZ  $7E00
 8078  9C 80 7E  STZ  $7E80
 807B  9C 00 7F  STZ  $7F00
 807E  9C 80 7F  STZ  $7F80
 8081  A2 78     LDX  #$78
 8083  8A        TXA  
 8084  A2 FF     LDX  #$FF
 8086  9A        TXS  
 8087  AA        TAX  
 8088  64 0E     STZ  $0E
 808A  64 0F     STZ  $0F
 808C  64 06     STZ  $06
 808E  64 07     STZ  $07
 8090  64 16     STZ  $16
 8092  64 17     STZ  $17
 8094  A9 00     LDA  #$00
 8096  85 08     STA  $08
 8098  A9 02     LDA  #$02
 809A  85 09     STA  $09
 809C  64 0A     STZ  $0A
 809E  64 0B     STZ  $0B
 80A0  20 7A 9A  JSR  $9A7A
 80A3  B5 00     LDA  $00, X
 80A5  D0 05     BNE  $80AC
 80A7  A9 06     LDA  #$06
 80A9  4C 82 DC  JMP  $DC82
 80AC  E8        INX  
 80AD  E8        INX  
 80AE  20 D4 DB  JSR  $DBD4
 80B1  E0 78     CPX  #$78
 80B3  F0 05     BEQ  $80BA
 80B5  90 03     BCC  $80BA
 80B7  4C 80 DC  JMP  $DC80
 80BA  A5 16     LDA  $16
 80BC  F0 02     BEQ  $80C0
 80BE  A9 01     LDA  #$01
 80C0  20 B2 DC  JSR  $DCB2
 80C3  80 CF     BRA  $8094
 80C5  FF 07 A5 CE 00 00 00 00 00 02 00 00 00 00 00 00  |................|
 80D5  30 E9 21 E9 00 00 00 00 0A 00 14 00 00 00 FF 02  |0.!.............|
 80E5  00 00 00 00 00 00 00 04 A5 CE 39 CF 42 CF E1 CE  |..........9.B...|
 80F5  00 00 00 00 00 00 00 00 00 00 00 00 00 00 00 00  |................|
 8105  01 00 00 00 00 00 00 00 00 00 FF 03 00 00 00 00  |................|
 8115  4B 85 4B 85                                      |K.K.            |
 8119  20 D1 9C  JSR  $9CD1
 811C  A0 81     LDY  #$81
 811E  A9 24     LDA  #$24
 8120  20 0F DB  JSR  $DB0F
 8123  60        RTS  
 8124  B5 04     LDA  $04, X
 8126  15 05     ORA  $05, X
 8128  F0 09     BEQ  $8133
 812A  20 7F A4  JSR  $A47F
 812D  20 53 89  JSR  $8953
 8130  4C 81 80  JMP  $8081
 8133  8A        TXA  
 8134  18        CLC  
 8135  69 06     ADC  #$06
 8137  AA        TAX  
 8138  60        RTS  
 8139  20 6C DC  JSR  $DC6C
 813C  B5 01     LDA  $01, X
 813E  10 0D     BPL  $814D
 8140  38        SEC  
 8141  A9 00     LDA  #$00
 8143  F5 00     SBC  $00, X
 8145  95 00     STA  $00, X
 8147  A9 00     LDA  #$00
 8149  F5 01     SBC  $01, X
 814B  95 01     STA  $01, X
 814D  60        RTS  
 814E  20 71 DC  JSR  $DC71
 8151  B5 00     LDA  $00, X
 8153  15 01     ORA  $01, X
 8155  D0 09     BNE  $8160
 8157  E8        INX  
 8158  E8        INX  
 8159  74 00     STZ  $00, X
 815B  74 01     STZ  $01, X
 815D  4C 2C 82  JMP  $822C
 8160  B5 00     LDA  $00, X
 8162  85 26     STA  $26
 8164  64 27     STZ  $27
 8166  B5 02     LDA  $02, X
 8168  85 24     STA  $24
 816A  B5 03     LDA  $03, X
 816C  85 25     STA  $25
 816E  E8        INX  
 816F  E8        INX  
 8170  A0 00     LDY  #$00
 8172  A5 20     LDA  $20
 8174  29 F7     AND  #$F7
 8176  1A        INC  
 8177  09 08     ORA  #$08
 8179  85 20     STA  $20
 817B  20 28 93  JSR  $9328
 817E  C9 0A     CMP  #$0A
 8180  F0 20     BEQ  $81A2
 8182  C9 0D     CMP  #$0D
 8184  F0 1C     BEQ  $81A2
 8186  C9 08     CMP  #$08
 8188  F0 22     BEQ  $81AC
 818A  C9 7F     CMP  #$7F
 818C  F0 1E     BEQ  $81AC
 818E  C9 10     CMP  #$10
 8190  F0 36     BEQ  $81C8
 8192  C9 0E     CMP  #$0E
 8194  F0 44     BEQ  $81DA
 8196  91 24     STA  ($24), Y
 8198  C8        INY  
 8199  20 E6 8D  JSR  $8DE6
 819C  C4 26     CPY  $26
 819E  D0 DB     BNE  $817B
 81A0  80 03     BRA  $81A5
 81A2  20 A0 A0  JSR  $A0A0
 81A5  94 00     STY  $00, X
 81A7  74 01     STZ  $01, X
 81A9  4C 2C 82  JMP  $822C
 81AC  C0 00     CPY  #$00
 81AE  D0 06     BNE  $81B6
 81B0  A9 07     LDA  #$07
 81B2  20 E6 8D  JSR  $8DE6
 81B5  C8        INY  
 81B6  88        DEY  
 81B7  A9 08     LDA  #$08
 81B9  20 E6 8D  JSR  $8DE6
 81BC  A9 20     LDA  #$20
 81BE  20 E6 8D  JSR  $8DE6
 81C1  A9 08     LDA  #$08
 81C3  20 E6 8D  JSR  $8DE6
 81C6  80 B3     BRA  $817B
 81C8  A5 20     LDA  $20
 81CA  29 07     AND  #$07
 81CC  D0 08     BNE  $81D6
 81CE  A5 20     LDA  $20
 81D0  09 07     ORA  #$07
 81D2  85 20     STA  $20
 81D4  80 11     BRA  $81E7
 81D6  C6 20     DEC  $20
 81D8  80 0D     BRA  $81E7
 81DA  A9 08     LDA  #$08
 81DC  24 20     BIT  $20
 81DE  D0 07     BNE  $81E7
 81E0  A5 20     LDA  $20
 81E2  29 F7     AND  #$F7
 81E4  1A        INC  
 81E5  85 20     STA  $20
 81E7  A9 08     LDA  #$08
 81E9  14 20     TRB  $20
 81EB  20 47 82  JSR  $8247
 81EE  A9 0D     LDA  #$0D
 81F0  20 E6 8D  JSR  $8DE6
 81F3  C0 00     CPY  #$00
 81F5  F0 08     BEQ  $81FF
 81F7  A9 20     LDA  #$20
 81F9  20 E6 8D  JSR  $8DE6
 81FC  88        DEY  
 81FD  80 F4     BRA  $81F3
 81FF  A9 0D     LDA  #$0D
 8201  20 E6 8D  JSR  $8DE6
 8204  B1 28     LDA  ($28), Y
 8206  85 21     STA  $21
 8208  E6 28     INC  $28
 820A  D0 02     BNE  $820E
 820C  E6 29     INC  $29
 820E  A9 0D     LDA  #$0D
 8210  20 E6 8D  JSR  $8DE6
 8213  C4 21     CPY  $21
 8215  D0 03     BNE  $821A
 8217  4C 7B 81  JMP  $817B
 821A  C4 26     CPY  $26
 821C  F0 0A     BEQ  $8228
 821E  B1 28     LDA  ($28), Y
 8220  91 24     STA  ($24), Y
 8222  20 E6 8D  JSR  $8DE6
 8225  C8        INY  
 8226  80 EB     BRA  $8213
 8228  88        DEY  
 8229  4C 7B 81  JMP  $817B
 822C  20 47 82  JSR  $8247
 822F  85 21     STA  $21
 8231  A0 00     LDY  #$00
 8233  91 28     STA  ($28), Y
 8235  E6 28     INC  $28
 8237  D0 02     BNE  $823B
 8239  E6 29     INC  $29
 823B  C4 21     CPY  $21
 823D  F0 07     BEQ  $8246
 823F  B1 24     LDA  ($24), Y
 8241  91 28     STA  ($28), Y
 8243  C8        INY  
 8244  80 F5     BRA  $823B
 8246  60        RTS  
 8247  A9 00     LDA  #$00
 8249  85 28     STA  $28
 824B  A9 7C     LDA  #$7C
 824D  85 29     STA  $29
 824F  A5 20     LDA  $20
 8251  6A        ROR  
 8252  29 03     AND  #$03
 8254  18        CLC  
 8255  65 29     ADC  $29
 8257  85 29     STA  $29
 8259  A5 20     LDA  $20
 825B  6A        ROR  
 825C  6A        ROR  
 825D  29 80     AND  #$80
 825F  18        CLC  
 8260  65 28     ADC  $28
 8262  85 28     STA  $28
 8264  90 02     BCC  $8268
 8266  E6 29     INC  $29
 8268  98        TYA  
 8269  C9 80     CMP  #$80
 826B  90 02     BCC  $826F
 826D  A9 7F     LDA  #$7F
 826F  60        RTS  
 8270  A5 16     LDA  $16
 8272  05 17     ORA  $17
 8274  F0 0C     BEQ  $8282
 8276  20 8E 85  JSR  $858E
 8279  A0 8A     LDY  #$8A
 827B  A9 CF     LDA  #$CF
 827D  20 0F DB  JSR  $DB0F
 8280  80 06     BRA  $8288
 8282  20 8D A1  JSR  $A18D
 8285  20 CF 8A  JSR  $8ACF
 8288  60        RTS  
 8289  20 6C DC  JSR  $DC6C
 828C  A0 00     LDY  #$00
 828E  A9 4C     LDA  #$4C
 8290  91 00     STA  ($00), Y
 8292  C8        INY  
 8293  B5 00     LDA  $00, X
 8295  91 00     STA  ($00), Y
 8297  C8        INY  
 8298  B5 01     LDA  $01, X
 829A  91 00     STA  ($00), Y
 829C  C8        INY  
 829D  98        TYA  
 829E  18        CLC  
 829F  65 00     ADC  $00
 82A1  85 00     STA  $00
 82A3  90 02     BCC  $82A7
 82A5  E6 01     INC  $01
 82A7  E8        INX  
 82A8  E8        INX  
 82A9  60        RTS  
 82AA  60        RTS  
 82AB  20 6C DC  JSR  $DC6C
 82AE  B5 01     LDA  $01, X
 82B0  30 22     BMI  $82D4
 82B2  18        CLC  
 82B3  A5 00     LDA  $00
 82B5  75 00     ADC  $00, X
 82B7  85 00     STA  $00
 82B9  A5 01     LDA  $01
 82BB  75 01     ADC  $01, X
 82BD  85 01     STA  $01
 82BF  A0 FD     LDY  #$FD
 82C1  C4 00     CPY  $00
 82C3  A9 77     LDA  #$77
 82C5  E5 01     SBC  $01
 82C7  B0 48     BCS  $8311
 82C9  84 00     STY  $00
 82CB  A9 77     LDA  #$77
 82CD  85 01     STA  $01
 82CF  A9 00     LDA  #$00
 82D1  4C 82 DC  JMP  $DC82
 82D4  CA        DEX  
 82D5  CA        DEX  
 82D6  A5 00     LDA  $00
 82D8  95 00     STA  $00, X
 82DA  A5 01     LDA  $01
 82DC  95 01     STA  $01, X
 82DE  20 65 99  JSR  $9965
 82E1  CA        DEX  
 82E2  CA        DEX  
 82E3  A9 FF     LDA  #$FF
 82E5  95 00     STA  $00, X
 82E7  A9 02     LDA  #$02
 82E9  95 01     STA  $01, X
 82EB  20 93 DB  JSR  $DB93
 82EE  F0 17     BEQ  $8307
 82F0  30 15     BMI  $8307
 82F2  A9 FF     LDA  #$FF
 82F4  85 00     STA  $00
 82F6  A9 02     LDA  #$02
 82F8  85 01     STA  $01
 82FA  A9 A5     LDA  #$A5
 82FC  85 02     STA  $02
 82FE  A9 CE     LDA  #$CE
 8300  85 03     STA  $03
 8302  A9 0A     LDA  #$0A
 8304  4C 82 DC  JMP  $DC82
 8307  B5 02     LDA  $02, X
 8309  85 00     STA  $00
 830B  B5 03     LDA  $03, X
 830D  85 01     STA  $01
 830F  E8        INX  
 8310  E8        INX  
 8311  E8        INX  
 8312  E8        INX  
 8313  60        RTS  
 8314  20 AE DB  JSR  $DBAE
 8317  A0 01     LDY  #$01
 8319  B1 02     LDA  ($02), Y
 831B  29 F5     AND  #$F5
 831D  91 02     STA  ($02), Y
 831F  60        RTS  
 8320  20 24 91  JSR  $9124
 8323  20 15 98  JSR  $9815
 8326  20 2A A1  JSR  $A12A
 8329  20 9F 97  JSR  $979F
 832C  20 9D 9C  JSR  $9C9D
 832F  60        RTS  
 8330  20 AE DB  JSR  $DBAE
 8333  A0 01     LDY  #$01
 8335  B1 02     LDA  ($02), Y
 8337  09 02     ORA  #$02
 8339  29 F7     AND  #$F7
 833B  91 02     STA  ($02), Y
 833D  60        RTS  
 833E  20 71 DC  JSR  $DC71
 8341  B5 00     LDA  $00, X
 8343  35 02     AND  $02, X
 8345  95 02     STA  $02, X
 8347  B5 01     LDA  $01, X
 8349  35 03     AND  $03, X
 834B  95 03     STA  $03, X
 834D  E8        INX  
 834E  E8        INX  
 834F  60        RTS  
 8350  20 71 DC  JSR  $DC71
 8353  A9 1B     LDA  #$1B
 8355  20 E6 8D  JSR  $8DE6
 8358  A9 5B     LDA  #$5B
 835A  20 E6 8D  JSR  $8DE6
 835D  20 B8 DC  JSR  $DCB8
 8360  A9 3B     LDA  #$3B
 8362  20 E6 8D  JSR  $8DE6
 8365  20 B8 DC  JSR  $DCB8
 8368  A9 48     LDA  #$48
 836A  20 E6 8D  JSR  $8DE6
 836D  60        RTS  
 836E  A5 0A     LDA  $0A
 8370  85 0C     STA  $0C
 8372  A5 0B     LDA  $0B
 8374  85 0D     STA  $0D
 8376  60        RTS  
 8377  CA        DEX  
 8378  CA        DEX  
 8379  A9 18     LDA  #$18
 837B  95 00     STA  $00, X
 837D  74 01     STZ  $01, X
 837F  60        RTS  
 8380  20 62 91  JSR  $9162
 8383  60        RTS  
 8384  A9 07     LDA  #$07
 8386  20 E6 8D  JSR  $8DE6
 8389  60        RTS  
 838A  CA        DEX  
 838B  CA        DEX  
 838C  A9 20     LDA  #$20
 838E  95 00     STA  $00, X
 8390  74 01     STZ  $01, X
 8392  60        RTS  
 8393  CA        DEX  
 8394  CA        DEX  
 8395  18        CLC  
 8396  A5 1E     LDA  $1E
 8398  69 00     ADC  #$00
 839A  95 00     STA  $00, X
 839C  A5 1F     LDA  $1F
 839E  69 00     ADC  #$00
 83A0  95 01     STA  $01, X
 83A2  60        RTS  
 83A3  CA        DEX  
 83A4  CA        DEX  
 83A5  A0 28     LDY  #$28
 83A7  B1 1E     LDA  ($1E), Y
 83A9  95 00     STA  $00, X
 83AB  C8        INY  
 83AC  B1 1E     LDA  ($1E), Y
 83AE  95 01     STA  $01, X
 83B0  60        RTS  
 83B1  A0 2A     LDY  #$2A
 83B3  B1 1E     LDA  ($1E), Y
 83B5  D5 00     CMP  $00, X
 83B7  D0 0F     BNE  $83C8
 83B9  C8        INY  
 83BA  B1 1E     LDA  ($1E), Y
 83BC  D5 01     CMP  $01, X
 83BE  D0 08     BNE  $83C8
 83C0  A0 2C     LDY  #$2C
 83C2  B1 1E     LDA  ($1E), Y
 83C4  29 01     AND  #$01
 83C6  D0 30     BNE  $83F8
 83C8  A0 2C     LDY  #$2C
 83CA  B1 1E     LDA  ($1E), Y
 83CC  C9 03     CMP  #$03
 83CE  D0 0C     BNE  $83DC
 83D0  20 A3 83  JSR  $83A3
 83D3  20 95 85  JSR  $8595
 83D6  20 70 8F  JSR  $8F70
 83D9  20 50 85  JSR  $8550
 83DC  A0 2A     LDY  #$2A
 83DE  B5 00     LDA  $00, X
 83E0  91 1E     STA  ($1E), Y
 83E2  C8        INY  
 83E3  B5 01     LDA  $01, X
 83E5  91 1E     STA  ($1E), Y
 83E7  20 A3 83  JSR  $83A3
 83EA  20 2A A1  JSR  $A12A
 83ED  20 2D 85  JSR  $852D
 83F0  A9 01     LDA  #$01
 83F2  A0 2C     LDY  #$2C
 83F4  91 1E     STA  ($1E), Y
 83F6  CA        DEX  
 83F7  CA        DEX  
 83F8  A0 28     LDY  #$28
 83FA  B1 1E     LDA  ($1E), Y
 83FC  95 00     STA  $00, X
 83FE  C8        INY  
 83FF  B1 1E     LDA  ($1E), Y
 8401  95 01     STA  $01, X
 8403  60        RTS  
 8404  20 6C DC  JSR  $DC6C
 8407  4C 22 85  JMP  $8522
 840A  62 61 73 65 20 40 20 73 77 61 70 20 64 65 63 69  |base @ swap deci|
 841A  6D 61 6C 20 31 30 32 34 20 2A 20 64 75 70 20 62  |mal 1024 * dup b|
 842A  75 66 66 65 72 3A 20 72 61 6D 64 72 69 76 65 20  |uffer: ramdrive |
 843A  3A 20 62 6C 6F 63 6B 2D 72 65 61 64 2D 72 61 6D  |: block-read-ram|
 844A  64 72 69 76 65 20 72 61 6D 64 72 69 76 65 20 73  |drive ramdrive s|
 845A  77 61 70 20 31 30 32 34 20 2A 20 2B 20 73 77 61  |wap 1024 * + swa|
 846A  70 20 31 30 32 34 20 6D 6F 76 65 20 3B 20 3A 20  |p 1024 move ; : |
 847A  62 6C 6F 63 6B 2D 77 72 69 74 65 2D 72 61 6D 64  |block-write-ramd|
 848A  72 69 76 65 20 72 61 6D 64 72 69 76 65 20 73 77  |rive ramdrive sw|
 849A  61 70 20 31 30 32 34 20 2A 20 2B 20 31 30 32 34  |ap 1024 * + 1024|
 84AA  20 6D 6F 76 65 20 3B 20 27 20 62 6C 6F 63 6B 2D  | move ; ' block-|
 84BA  72 65 61 64 2D 72 61 6D 64 72 69 76 65 20 62 6C  |read-ramdrive bl|
 84CA  6F 63 6B 2D 72 65 61 64 2D 76 65 63 74 6F 72 20  |ock-read-vector |
 84DA  21 20 27 20 62 6C 6F 63 6B 2D 77 72 69 74 65 2D  |! ' block-write-|
 84EA  72 61 6D 64 72 69 76 65 20 62 6C 6F 63 6B 2D 77  |ramdrive block-w|
 84FA  72 69 74 65 2D 76 65 63 74 6F 72 20 21 20 72 61  |rite-vector ! ra|
 850A  6D 64 72 69 76 65 20 73 77 61 70 20 62 6C 61 6E  |mdrive swap blan|
 851A  6B 20 62 61 73 65 20 21                          |k base !        |
 8522  20 2B A0  JSR  $A02B
 8525  0A 84 18 01                                      |....            |
 8529  20 C5 90  JSR  $90C5
 852C  60        RTS  
 852D  A0 2E     LDY  #$2E
 852F  B1 1E     LDA  ($1E), Y
 8531  85 24     STA  $24
 8533  C8        INY  
 8534  B1 1E     LDA  ($1E), Y
 8536  85 25     STA  $25
 8538  6C 24 00  JMP  ($0024)
 853B  CA        DEX  
 853C  CA        DEX  
 853D  18        CLC  
 853E  A5 1E     LDA  $1E
 8540  69 2E     ADC  #$2E
 8542  95 00     STA  $00, X
 8544  A5 1F     LDA  $1F
 8546  69 00     ADC  #$00
 8548  95 01     STA  $01, X
 854A  60        RTS  
 854B  A9 0C     LDA  #$0C
 854D  4C 82 DC  JMP  $DC82
 8550  A0 30     LDY  #$30
 8552  B1 1E     LDA  ($1E), Y
 8554  85 24     STA  $24
 8556  C8        INY  
 8557  B1 1E     LDA  ($1E), Y
 8559  85 25     STA  $25
 855B  6C 24 00  JMP  ($0024)
 855E  CA        DEX  
 855F  CA        DEX  
 8560  18        CLC  
 8561  A5 1E     LDA  $1E
 8563  69 30     ADC  #$30
 8565  95 00     STA  $00, X
 8567  A5 1F     LDA  $1F
 8569  69 00     ADC  #$00
 856B  95 01     STA  $01, X
 856D  60        RTS  
 856E  20 71 DC  JSR  $DC71
 8571  18        CLC  
 8572  B5 00     LDA  $00, X
 8574  B4 02     LDY  $02, X
 8576  75 02     ADC  $02, X
 8578  95 02     STA  $02, X
 857A  94 00     STY  $00, X
 857C  B5 01     LDA  $01, X
 857E  B4 03     LDY  $03, X
 8580  75 03     ADC  $03, X
 8582  95 03     STA  $03, X
 8584  94 01     STY  $01, X
 8586  60        RTS  
 8587  20 21 86  JSR  $8621
 858A  20 7A 93  JSR  $937A
 858D  60        RTS  
 858E  20 8D A1  JSR  $A18D
 8591  20 7A 93  JSR  $937A
 8594  60        RTS  
 8595  CA        DEX  
 8596  CA        DEX  
 8597  18        CLC  
 8598  A5 1E     LDA  $1E
 859A  69 2A     ADC  #$2A
 859C  95 00     STA  $00, X
 859E  A5 1F     LDA  $1F
 85A0  69 00     ADC  #$00
 85A2  95 01     STA  $01, X
 85A4  60        RTS  
 85A5  A0 2C     LDY  #$2C
 85A7  B1 1E     LDA  ($1E), Y
 85A9  C9 03     CMP  #$03
 85AB  D0 0C     BNE  $85B9
 85AD  20 A3 83  JSR  $83A3
 85B0  20 95 85  JSR  $8595
 85B3  20 70 8F  JSR  $8F70
 85B6  20 50 85  JSR  $8550
 85B9  A0 2A     LDY  #$2A
 85BB  B5 00     LDA  $00, X
 85BD  91 1E     STA  ($1E), Y
 85BF  C8        INY  
 85C0  B5 01     LDA  $01, X
 85C2  91 1E     STA  ($1E), Y
 85C4  A9 01     LDA  #$01
 85C6  A0 2C     LDY  #$2C
 85C8  91 1E     STA  ($1E), Y
 85CA  A0 28     LDY  #$28
 85CC  B1 1E     LDA  ($1E), Y
 85CE  95 00     STA  $00, X
 85D0  C8        INY  
 85D1  B1 1E     LDA  ($1E), Y
 85D3  95 01     STA  $01, X
 85D5  60        RTS  
 85D6  20 59 89  JSR  $8959
 85D9  20 AB 82  JSR  $82AB
 85DC  60        RTS  
 85DD  CA        DEX  
 85DE  CA        DEX  
 85DF  18        CLC  
 85E0  A5 1E     LDA  $1E
 85E2  69 2C     ADC  #$2C
 85E4  95 00     STA  $00, X
 85E6  A5 1F     LDA  $1F
 85E8  69 00     ADC  #$00
 85EA  95 01     STA  $01, X
 85EC  60        RTS  
 85ED  4C C6 E8  JMP  $E8C6
 85F0  20 6C DC  JSR  $DC6C
 85F3  B5 00     LDA  $00, X
 85F5  20 1F DB  JSR  $DB1F
 85F8  E8        INX  
 85F9  E8        INX  
 85FA  60        RTS  
 85FB  20 6C DC  JSR  $DC6C
 85FE  A1 00     LDA  ($00, X)
 8600  95 00     STA  $00, X
 8602  74 01     STZ  $01, X
 8604  60        RTS  
 8605  20 71 DC  JSR  $DC71
 8608  B5 02     LDA  $02, X
 860A  81 00     STA  ($00, X)
 860C  E8        INX  
 860D  E8        INX  
 860E  E8        INX  
 860F  E8        INX  
 8610  60        RTS  
 8611  20 6C DC  JSR  $DC6C
 8614  F6 00     INC  $00, X
 8616  D0 02     BNE  $861A
 8618  F6 01     INC  $01, X
 861A  F6 00     INC  $00, X
 861C  D0 02     BNE  $8620
 861E  F6 01     INC  $01, X
 8620  60        RTS  
 8621  20 61 98  JSR  $9861
 8624  B5 00     LDA  $00, X
 8626  15 01     ORA  $01, X
 8628  D0 05     BNE  $862F
 862A  A9 05     LDA  #$05
 862C  4C 82 DC  JMP  $DC82
 862F  E8        INX  
 8630  E8        INX  
 8631  A1 00     LDA  ($00, X)
 8633  95 00     STA  $00, X
 8635  74 01     STZ  $01, X
 8637  60        RTS  
 8638  20 6C DC  JSR  $DC6C
 863B  60        RTS  
 863C  20 71 DC  JSR  $DC71
 863F  20 53 95  JSR  $9553
 8642  20 52 92  JSR  $9252
 8645  B5 00     LDA  $00, X
 8647  85 0A     STA  $0A
 8649  B5 01     LDA  $01, X
 864B  85 0B     STA  $0B
 864D  B5 02     LDA  $02, X
 864F  85 08     STA  $08
 8651  B5 03     LDA  $03, X
 8653  85 09     STA  $09
 8655  64 0C     STZ  $0C
 8657  64 0D     STZ  $0D
 8659  20 61 98  JSR  $9861
 865C  B5 00     LDA  $00, X
 865E  15 01     ORA  $01, X
 8660  F0 23     BEQ  $8685
 8662  B5 04     LDA  $04, X
 8664  38        SEC  
 8665  F5 00     SBC  $00, X
 8667  95 04     STA  $04, X
 8669  B5 05     LDA  $05, X
 866B  F5 01     SBC  $01, X
 866D  95 05     STA  $05, X
 866F  B5 06     LDA  $06, X
 8671  18        CLC  
 8672  75 00     ADC  $00, X
 8674  95 06     STA  $06, X
 8676  B5 07     LDA  $07, X
 8678  75 01     ADC  $01, X
 867A  95 07     STA  $07, X
 867C  20 FA A3  JSR  $A3FA
 867F  20 53 95  JSR  $9553
 8682  20 FA A3  JSR  $A3FA
 8685  20 25 9A  JSR  $9A25
 8688  60        RTS  
 8689  20 76 DC  JSR  $DC76
 868C  B5 02     LDA  $02, X
 868E  85 26     STA  $26
 8690  B5 03     LDA  $03, X
 8692  85 27     STA  $27
 8694  B5 04     LDA  $04, X
 8696  85 24     STA  $24
 8698  B5 05     LDA  $05, X
 869A  85 25     STA  $25
 869C  A0 00     LDY  #$00
 869E  B5 01     LDA  $01, X
 86A0  F0 0F     BEQ  $86B1
 86A2  B1 24     LDA  ($24), Y
 86A4  91 26     STA  ($26), Y
 86A6  C8        INY  
 86A7  D0 F9     BNE  $86A2
 86A9  E6 25     INC  $25
 86AB  E6 27     INC  $27
 86AD  D6 01     DEC  $01, X
 86AF  D0 F1     BNE  $86A2
 86B1  B5 00     LDA  $00, X
 86B3  F0 09     BEQ  $86BE
 86B5  B1 24     LDA  ($24), Y
 86B7  91 26     STA  ($26), Y
 86B9  C8        INY  
 86BA  D6 00     DEC  $00, X
 86BC  D0 F7     BNE  $86B5
 86BE  8A        TXA  
 86BF  18        CLC  
 86C0  69 06     ADC  #$06
 86C2  AA        TAX  
 86C3  60        RTS  
 86C4  20 76 DC  JSR  $DC76
 86C7  B5 02     LDA  $02, X
 86C9  85 26     STA  $26
 86CB  B5 03     LDA  $03, X
 86CD  18        CLC  
 86CE  75 01     ADC  $01, X
 86D0  85 27     STA  $27
 86D2  B5 04     LDA  $04, X
 86D4  85 24     STA  $24
 86D6  B5 05     LDA  $05, X
 86D8  18        CLC  
 86D9  75 01     ADC  $01, X
 86DB  85 25     STA  $25
 86DD  F6 01     INC  $01, X
 86DF  B4 00     LDY  $00, X
 86E1  F0 0E     BEQ  $86F1
 86E3  88        DEY  
 86E4  F0 07     BEQ  $86ED
 86E6  B1 24     LDA  ($24), Y
 86E8  91 26     STA  ($26), Y
 86EA  88        DEY  
 86EB  D0 F9     BNE  $86E6
 86ED  B2 24     LDA  ($24)
 86EF  92 26     STA  ($26)
 86F1  C6 25     DEC  $25
 86F3  C6 27     DEC  $27
 86F5  D6 01     DEC  $01, X
 86F7  D0 EA     BNE  $86E3
 86F9  8A        TXA  
 86FA  18        CLC  
 86FB  69 06     ADC  #$06
 86FD  AA        TAX  
 86FE  60        RTS  
 86FF  A5 16     LDA  $16
 8701  05 17     ORA  $17
 8703  F0 05     BEQ  $870A
 8705  A9 07     LDA  #$07
 8707  4C 82 DC  JMP  $DC82
 870A  C6 16     DEC  $16
 870C  C6 17     DEC  $17
 870E  A9 40     LDA  #$40
 8710  04 20     TSB  $20
 8712  20 AE DB  JSR  $DBAE
 8715  A5 03     LDA  $03
 8717  48        PHA  
 8718  A5 02     LDA  $02
 871A  48        PHA  
 871B  A9 80     LDA  #$80
 871D  04 20     TSB  $20
 871F  20 59 89  JSR  $8959
 8722  20 AE DB  JSR  $DBAE
 8725  A5 02     LDA  $02
 8727  85 04     STA  $04
 8729  A5 03     LDA  $03
 872B  85 05     STA  $05
 872D  68        PLA  
 872E  85 02     STA  $02
 8730  68        PLA  
 8731  85 03     STA  $03
 8733  20 C1 DB  JSR  $DBC1
 8736  A5 00     LDA  $00
 8738  38        SEC  
 8739  E9 03     SBC  #$03
 873B  85 00     STA  $00
 873D  B0 02     BCS  $8741
 873F  C6 01     DEC  $01
 8741  60        RTS  
 8742  A5 16     LDA  $16
 8744  05 17     ORA  $17
 8746  F0 05     BEQ  $874D
 8748  A9 07     LDA  #$07
 874A  4C 82 DC  JMP  $DC82
 874D  C6 16     DEC  $16
 874F  C6 17     DEC  $17
 8751  A9 40     LDA  #$40
 8753  14 20     TRB  $20
 8755  A5 00     LDA  $00
 8757  85 04     STA  $04
 8759  A5 01     LDA  $01
 875B  85 05     STA  $05
 875D  60        RTS  
 875E  20 6C DC  JSR  $DC6C
 8761  B5 00     LDA  $00, X
 8763  92 00     STA  ($00)
 8765  E6 00     INC  $00
 8767  D0 02     BNE  $876B
 8769  E6 01     INC  $01
 876B  B5 01     LDA  $01, X
 876D  92 00     STA  ($00)
 876F  E6 00     INC  $00
 8771  D0 02     BNE  $8775
 8773  E6 01     INC  $01
 8775  E8        INX  
 8776  E8        INX  
 8777  60        RTS  
 8778  20 7B DC  JSR  $DC7B
 877B  B5 02     LDA  $02, X
 877D  85 26     STA  $26
 877F  B5 03     LDA  $03, X
 8781  85 27     STA  $27
 8783  B5 06     LDA  $06, X
 8785  85 24     STA  $24
 8787  B5 07     LDA  $07, X
 8789  85 25     STA  $25
 878B  B5 04     LDA  $04, X
 878D  15 05     ORA  $05, X
 878F  F0 2C     BEQ  $87BD
 8791  B5 00     LDA  $00, X
 8793  15 01     ORA  $01, X
 8795  F0 3A     BEQ  $87D1
 8797  B2 24     LDA  ($24)
 8799  D2 26     CMP  ($26)
 879B  90 26     BCC  $87C3
 879D  D0 32     BNE  $87D1
 879F  E6 24     INC  $24
 87A1  D0 02     BNE  $87A5
 87A3  E6 25     INC  $25
 87A5  E6 26     INC  $26
 87A7  D0 02     BNE  $87AB
 87A9  E6 27     INC  $27
 87AB  B5 04     LDA  $04, X
 87AD  D0 02     BNE  $87B1
 87AF  D6 05     DEC  $05, X
 87B1  D6 04     DEC  $04, X
 87B3  B5 00     LDA  $00, X
 87B5  D0 02     BNE  $87B9
 87B7  D6 01     DEC  $01, X
 87B9  D6 00     DEC  $00, X
 87BB  80 CE     BRA  $878B
 87BD  B5 00     LDA  $00, X
 87BF  15 01     ORA  $01, X
 87C1  F0 08     BEQ  $87CB
 87C3  A9 FF     LDA  #$FF
 87C5  95 06     STA  $06, X
 87C7  95 07     STA  $07, X
 87C9  80 0C     BRA  $87D7
 87CB  74 06     STZ  $06, X
 87CD  74 07     STZ  $07, X
 87CF  80 06     BRA  $87D7
 87D1  A9 01     LDA  #$01
 87D3  95 06     STA  $06, X
 87D5  74 07     STZ  $07, X
 87D7  8A        TXA  
 87D8  18        CLC  
 87D9  69 06     ADC  #$06
 87DB  AA        TAX  
 87DC  60        RTS  
 87DD  20 6C DC  JSR  $DC6C
 87E0  B5 01     LDA  $01, X
 87E2  48        PHA  
 87E3  B5 00     LDA  $00, X
 87E5  48        PHA  
 87E6  20 68 92  JSR  $9268
 87E9  B5 00     LDA  $00, X
 87EB  15 01     ORA  $01, X
 87ED  D0 03     BNE  $87F2
 87EF  4C DA 88  JMP  $88DA
 87F2  B5 00     LDA  $00, X
 87F4  85 2C     STA  $2C
 87F6  B5 01     LDA  $01, X
 87F8  85 2D     STA  $2D
 87FA  F6 00     INC  $00, X
 87FC  D0 02     BNE  $8800
 87FE  F6 01     INC  $01, X
 8800  A1 00     LDA  ($00, X)
 8802  85 28     STA  $28
 8804  29 02     AND  #$02
 8806  F0 0D     BEQ  $8815
 8808  A5 2C     LDA  $2C
 880A  95 00     STA  $00, X
 880C  A5 2D     LDA  $2D
 880E  95 01     STA  $01, X
 8810  20 F0 A6  JSR  $A6F0
 8813  80 27     BRA  $883C
 8815  A5 28     LDA  $28
 8817  29 08     AND  #$08
 8819  F0 03     BEQ  $881E
 881B  4C DA 88  JMP  $88DA
 881E  A5 2C     LDA  $2C
 8820  95 00     STA  $00, X
 8822  A5 2D     LDA  $2D
 8824  95 01     STA  $01, X
 8826  20 F0 A6  JSR  $A6F0
 8829  B5 01     LDA  $01, X
 882B  C5 1B     CMP  $1B
 882D  90 0D     BCC  $883C
 882F  D0 08     BNE  $8839
 8831  B5 00     LDA  $00, X
 8833  C5 1A     CMP  $1A
 8835  90 05     BCC  $883C
 8837  F0 03     BEQ  $883C
 8839  4C DA 88  JMP  $88DA
 883C  CA        DEX  
 883D  CA        DEX  
 883E  CA        DEX  
 883F  CA        DEX  
 8840  B5 04     LDA  $04, X
 8842  95 00     STA  $00, X
 8844  B5 05     LDA  $05, X
 8846  95 01     STA  $01, X
 8848  68        PLA  
 8849  95 04     STA  $04, X
 884B  68        PLA  
 884C  95 05     STA  $05, X
 884E  A5 00     LDA  $00
 8850  95 02     STA  $02, X
 8852  A5 01     LDA  $01
 8854  95 03     STA  $03, X
 8856  A0 00     LDY  #$00
 8858  B9 C8 88  LDA  $88C8, Y
 885B  D5 04     CMP  $04, X
 885D  D0 07     BNE  $8866
 885F  B9 C9 88  LDA  $88C9, Y
 8862  D5 05     CMP  $05, X
 8864  F0 0C     BEQ  $8872
 8866  B9 C8 88  LDA  $88C8, Y
 8869  19 C9 88  ORA  $88C9, Y
 886C  F0 22     BEQ  $8890
 886E  C8        INY  
 886F  C8        INY  
 8870  80 E6     BRA  $8858
 8872  98        TYA  
 8873  4A        LSR  
 8874  A8        TAY  
 8875  B9 D4 88  LDA  $88D4, Y
 8878  85 2C     STA  $2C
 887A  18        CLC  
 887B  75 04     ADC  $04, X
 887D  95 04     STA  $04, X
 887F  90 02     BCC  $8883
 8881  F6 05     INC  $05, X
 8883  06 2C     ASL  $2C
 8885  38        SEC  
 8886  B5 00     LDA  $00, X
 8888  E5 2C     SBC  $2C
 888A  95 00     STA  $00, X
 888C  B0 02     BCS  $8890
 888E  D6 01     DEC  $01, X
 8890  A5 1C     LDA  $1C
 8892  05 1D     ORA  $1D
 8894  F0 1C     BEQ  $88B2
 8896  A5 28     LDA  $28
 8898  29 10     AND  #$10
 889A  F0 16     BEQ  $88B2
 889C  18        CLC  
 889D  B5 04     LDA  $04, X
 889F  69 03     ADC  #$03
 88A1  95 04     STA  $04, X
 88A3  90 02     BCC  $88A7
 88A5  F6 05     INC  $05, X
 88A7  38        SEC  
 88A8  B5 00     LDA  $00, X
 88AA  E9 03     SBC  #$03
 88AC  95 00     STA  $00, X
 88AE  B0 02     BCS  $88B2
 88B0  D6 01     DEC  $01, X
 88B2  B5 01     LDA  $01, X
 88B4  48        PHA  
 88B5  B5 00     LDA  $00, X
 88B7  48        PHA  
 88B8  20 B2 95  JSR  $95B2
 88BB  18        CLC  
 88BC  68        PLA  
 88BD  65 00     ADC  $00
 88BF  85 00     STA  $00
 88C1  68        PLA  
 88C2  65 01     ADC  $01
 88C4  85 01     STA  $01
 88C6  80 2C     BRA  $88F4
 88C8  14 9A FF 99 EC A2 1E A4 A4 A3 00 00 04 04 04 06  |................|
 88D8  06 00                                            |..              |
 88DA  A9 20     LDA  #$20
 88DC  92 00     STA  ($00)
 88DE  A0 01     LDY  #$01
 88E0  68        PLA  
 88E1  91 00     STA  ($00), Y
 88E3  C8        INY  
 88E4  68        PLA  
 88E5  91 00     STA  ($00), Y
 88E7  A9 03     LDA  #$03
 88E9  18        CLC  
 88EA  65 00     ADC  $00
 88EC  85 00     STA  $00
 88EE  90 02     BCC  $88F2
 88F0  E6 01     INC  $01
 88F2  E8        INX  
 88F3  E8        INX  
 88F4  60        RTS  
 88F5  20 AE DB  JSR  $DBAE
 88F8  A0 01     LDY  #$01
 88FA  B1 02     LDA  ($02), Y
 88FC  09 01     ORA  #$01
 88FE  91 02     STA  ($02), Y
 8900  60        RTS  
 8901  20 6C DC  JSR  $DC6C
 8904  20 59 89  JSR  $8959
 8907  38        SEC  
 8908  A5 00     LDA  $00
 890A  E9 02     SBC  #$02
 890C  85 24     STA  $24
 890E  A5 01     LDA  $01
 8910  E9 00     SBC  #$00
 8912  85 25     STA  $25
 8914  A9 28     LDA  #$28
 8916  92 24     STA  ($24)
 8918  A0 01     LDY  #$01
 891A  A9 DB     LDA  #$DB
 891C  91 24     STA  ($24), Y
 891E  20 5E 87  JSR  $875E
 8921  20 2B 93  JSR  $932B
 8924  B5 00     LDA  $00, X
 8926  85 24     STA  $24
 8928  B5 01     LDA  $01, X
 892A  85 25     STA  $25
 892C  A0 06     LDY  #$06
 892E  B1 24     LDA  ($24), Y
 8930  18        CLC  
 8931  69 02     ADC  #$02
 8933  91 24     STA  ($24), Y
 8935  C8        INY  
 8936  B1 24     LDA  ($24), Y
 8938  69 00     ADC  #$00
 893A  91 24     STA  ($24), Y
 893C  E8        INX  
 893D  E8        INX  
 893E  60        RTS  
 893F  20 6C DC  JSR  $DC6C
 8942  A1 00     LDA  ($00, X)
 8944  A8        TAY  
 8945  F6 00     INC  $00, X
 8947  D0 02     BNE  $894B
 8949  F6 01     INC  $01, X
 894B  98        TYA  
 894C  CA        DEX  
 894D  CA        DEX  
 894E  95 00     STA  $00, X
 8950  74 01     STZ  $01, X
 8952  60        RTS  
 8953  A9 0A     LDA  #$0A
 8955  20 E6 8D  JSR  $8DE6
 8958  60        RTS  
 8959  20 61 98  JSR  $9861
 895C  B5 00     LDA  $00, X
 895E  15 01     ORA  $01, X
 8960  D0 05     BNE  $8967
 8962  A9 05     LDA  #$05
 8964  4C 82 DC  JMP  $DC82
 8967  74 01     STZ  $01, X
 8969  20 34 A3  JSR  $A334
 896C  20 CB 8F  JSR  $8FCB
 896F  B5 00     LDA  $00, X
 8971  15 01     ORA  $01, X
 8973  F0 1E     BEQ  $8993
 8975  E8        INX  
 8976  E8        INX  
 8977  24 20     BIT  $20
 8979  10 08     BPL  $8983
 897B  A9 80     LDA  #$80
 897D  05 20     ORA  $20
 897F  85 20     STA  $20
 8981  80 18     BRA  $899B
 8983  A9 02     LDA  #$02
 8985  20 98 DC  JSR  $DC98
 8988  20 34 A3  JSR  $A334
 898B  20 7F A4  JSR  $A47F
 898E  20 A0 A0  JSR  $A0A0
 8991  80 08     BRA  $899B
 8993  E8        INX  
 8994  E8        INX  
 8995  A9 7F     LDA  #$7F
 8997  25 20     AND  $20
 8999  85 20     STA  $20
 899B  B5 00     LDA  $00, X
 899D  85 26     STA  $26
 899F  A5 00     LDA  $00
 89A1  85 24     STA  $24
 89A3  A5 01     LDA  $01
 89A5  85 25     STA  $25
 89A7  B5 00     LDA  $00, X
 89A9  18        CLC  
 89AA  69 08     ADC  #$08
 89AC  85 28     STA  $28
 89AE  18        CLC  
 89AF  69 03     ADC  #$03
 89B1  95 00     STA  $00, X
 89B3  74 01     STZ  $01, X
 89B5  20 AB 82  JSR  $82AB
 89B8  20 AE DB  JSR  $DBAE
 89BB  A0 00     LDY  #$00
 89BD  A5 26     LDA  $26
 89BF  91 24     STA  ($24), Y
 89C1  A9 08     LDA  #$08
 89C3  09 20     ORA  #$20
 89C5  C8        INY  
 89C6  91 24     STA  ($24), Y
 89C8  C8        INY  
 89C9  A5 02     LDA  $02
 89CB  91 24     STA  ($24), Y
 89CD  C8        INY  
 89CE  A5 03     LDA  $03
 89D0  91 24     STA  ($24), Y
 89D2  C8        INY  
 89D3  A5 25     LDA  $25
 89D5  85 03     STA  $03
 89D7  A5 24     LDA  $24
 89D9  85 02     STA  $02
 89DB  18        CLC  
 89DC  65 28     ADC  $28
 89DE  91 24     STA  ($24), Y
 89E0  48        PHA  
 89E1  C8        INY  
 89E2  A5 25     LDA  $25
 89E4  69 00     ADC  #$00
 89E6  91 24     STA  ($24), Y
 89E8  C8        INY  
 89E9  68        PLA  
 89EA  18        CLC  
 89EB  69 03     ADC  #$03
 89ED  91 24     STA  ($24), Y
 89EF  88        DEY  
 89F0  B1 24     LDA  ($24), Y
 89F2  69 00     ADC  #$00
 89F4  C8        INY  
 89F5  C8        INY  
 89F6  91 24     STA  ($24), Y
 89F8  C8        INY  
 89F9  B5 00     LDA  $00, X
 89FB  38        SEC  
 89FC  E9 08     SBC  #$08
 89FE  85 2C     STA  $2C
 8A00  B5 01     LDA  $01, X
 8A02  E9 00     SBC  #$00
 8A04  85 2D     STA  $2D
 8A06  B1 2C     LDA  ($2C), Y
 8A08  C9 5B     CMP  #$5B
 8A0A  B0 07     BCS  $8A13
 8A0C  C9 41     CMP  #$41
 8A0E  90 03     BCC  $8A13
 8A10  18        CLC  
 8A11  69 20     ADC  #$20
 8A13  91 24     STA  ($24), Y
 8A15  C8        INY  
 8A16  C6 26     DEC  $26
 8A18  D0 EC     BNE  $8A06
 8A1A  A9 20     LDA  #$20
 8A1C  91 24     STA  ($24), Y
 8A1E  C8        INY  
 8A1F  A9 6E     LDA  #$6E
 8A21  91 24     STA  ($24), Y
 8A23  C8        INY  
 8A24  A9 DB     LDA  #$DB
 8A26  91 24     STA  ($24), Y
 8A28  20 C1 DB  JSR  $DBC1
 8A2B  E8        INX  
 8A2C  E8        INX  
 8A2D  60        RTS  
 8A2E  20 7B DC  JSR  $DC7B
 8A31  38        SEC  
 8A32  B5 06     LDA  $06, X
 8A34  F5 02     SBC  $02, X
 8A36  95 06     STA  $06, X
 8A38  B5 07     LDA  $07, X
 8A3A  F5 03     SBC  $03, X
 8A3C  95 07     STA  $07, X
 8A3E  B5 04     LDA  $04, X
 8A40  F5 00     SBC  $00, X
 8A42  95 04     STA  $04, X
 8A44  B5 05     LDA  $05, X
 8A46  F5 01     SBC  $01, X
 8A48  95 05     STA  $05, X
 8A4A  E8        INX  
 8A4B  E8        INX  
 8A4C  E8        INX  
 8A4D  E8        INX  
 8A4E  60        RTS  
 8A4F  20 7B DC  JSR  $DC7B
 8A52  18        CLC  
 8A53  B5 02     LDA  $02, X
 8A55  75 06     ADC  $06, X
 8A57  95 06     STA  $06, X
 8A59  B5 03     LDA  $03, X
 8A5B  75 07     ADC  $07, X
 8A5D  95 07     STA  $07, X
 8A5F  B5 00     LDA  $00, X
 8A61  75 04     ADC  $04, X
 8A63  95 04     STA  $04, X
 8A65  B5 01     LDA  $01, X
 8A67  75 05     ADC  $05, X
 8A69  95 05     STA  $05, X
 8A6B  E8        INX  
 8A6C  E8        INX  
 8A6D  E8        INX  
 8A6E  E8        INX  
 8A6F  60        RTS  
 8A70  20 71 DC  JSR  $DC71
 8A73  E8        INX  
 8A74  E8        INX  
 8A75  60        RTS  
 8A76  20 71 DC  JSR  $DC71
 8A79  B5 01     LDA  $01, X
 8A7B  10 17     BPL  $8A94
 8A7D  A0 00     LDY  #$00
 8A7F  38        SEC  
 8A80  98        TYA  
 8A81  F5 02     SBC  $02, X
 8A83  95 02     STA  $02, X
 8A85  98        TYA  
 8A86  F5 03     SBC  $03, X
 8A88  95 03     STA  $03, X
 8A8A  98        TYA  
 8A8B  F5 00     SBC  $00, X
 8A8D  95 00     STA  $00, X
 8A8F  98        TYA  
 8A90  F5 01     SBC  $01, X
 8A92  95 01     STA  $01, X
 8A94  60        RTS  
 8A95  A9 0A     LDA  #$0A
 8A97  85 18     STA  $18
 8A99  64 19     STZ  $19
 8A9B  60        RTS  
 8A9C  20 59 89  JSR  $8959
 8A9F  A5 00     LDA  $00
 8AA1  38        SEC  
 8AA2  E9 02     SBC  #$02
 8AA4  85 24     STA  $24
 8AA6  A5 01     LDA  $01
 8AA8  E9 00     SBC  #$00
 8AAA  85 25     STA  $25
 8AAC  A0 00     LDY  #$00
 8AAE  A9 3C     LDA  #$3C
 8AB0  91 24     STA  ($24), Y
 8AB2  C8        INY  
 8AB3  A9 DB     LDA  #$DB
 8AB5  91 24     STA  ($24), Y
 8AB7  A9 50     LDA  #$50
 8AB9  92 00     STA  ($00)
 8ABB  E6 00     INC  $00
 8ABD  D0 02     BNE  $8AC1
 8ABF  E6 01     INC  $01
 8AC1  A9 DB     LDA  #$DB
 8AC3  92 00     STA  ($00)
 8AC5  E6 00     INC  $00
 8AC7  D0 02     BNE  $8ACB
 8AC9  E6 01     INC  $01
 8ACB  20 21 89  JSR  $8921
 8ACE  60        RTS  
 8ACF  20 09 A2  JSR  $A209
 8AD2  20 70 8F  JSR  $8F70
 8AD5  60        RTS  
 8AD6  20 09 A2  JSR  $A209
 8AD9  20 09 A1  JSR  $A109
 8ADC  60        RTS  
 8ADD  A0 1F     LDY  #$1F
 8ADF  B1 1E     LDA  ($1E), Y
 8AE1  A0 04     LDY  #$04
 8AE3  91 1E     STA  ($1E), Y
 8AE5  60        RTS  
 8AE6  A9 78     LDA  #$78
 8AE8  86 2A     STX  $2A
 8AEA  38        SEC  
 8AEB  E5 2A     SBC  $2A
 8AED  4A        LSR  
 8AEE  CA        DEX  
 8AEF  CA        DEX  
 8AF0  95 00     STA  $00, X
 8AF2  74 01     STZ  $01, X
 8AF4  60        RTS  
 8AF5  20 6C DC  JSR  $DC6C
 8AF8  CA        DEX  
 8AF9  CA        DEX  
 8AFA  74 00     STZ  $00, X
 8AFC  74 01     STZ  $01, X
 8AFE  74 03     STZ  $03, X
 8B00  B5 02     LDA  $02, X
 8B02  C9 30     CMP  #$30
 8B04  90 23     BCC  $8B29
 8B06  C9 3A     CMP  #$3A
 8B08  90 12     BCC  $8B1C
 8B0A  C9 41     CMP  #$41
 8B0C  90 1B     BCC  $8B29
 8B0E  C9 61     CMP  #$61
 8B10  90 07     BCC  $8B19
 8B12  C9 7B     CMP  #$7B
 8B14  B0 03     BCS  $8B19
 8B16  18        CLC  
 8B17  69 E0     ADC  #$E0
 8B19  38        SEC  
 8B1A  E9 07     SBC  #$07
 8B1C  38        SEC  
 8B1D  E9 30     SBC  #$30
 8B1F  C5 18     CMP  $18
 8B21  B0 06     BCS  $8B29
 8B23  95 02     STA  $02, X
 8B25  D6 00     DEC  $00, X
 8B27  D6 01     DEC  $01, X
 8B29  60        RTS  
 8B2A  20 71 DC  JSR  $DC71
 8B2D  20 B9 AC  JSR  $ACB9
 8B30  60        RTS  
 8B31  20 71 DC  JSR  $DC71
 8B34  A0 00     LDY  #$00
 8B36  38        SEC  
 8B37  98        TYA  
 8B38  F5 02     SBC  $02, X
 8B3A  95 02     STA  $02, X
 8B3C  98        TYA  
 8B3D  F5 03     SBC  $03, X
 8B3F  95 03     STA  $03, X
 8B41  98        TYA  
 8B42  F5 00     SBC  $00, X
 8B44  95 00     STA  $00, X
 8B46  98        TYA  
 8B47  F5 01     SBC  $01, X
 8B49  95 01     STA  $01, X
 8B4B  60        RTS  
 8B4C  A9 FF     LDA  #$FF
 8B4E  85 24     STA  $24
 8B50  80 02     BRA  $8B54
 8B52  64 24     STZ  $24
 8B54  CA        DEX  
 8B55  CA        DEX  
 8B56  A5 00     LDA  $00
 8B58  95 00     STA  $00, X
 8B5A  A5 01     LDA  $01
 8B5C  95 01     STA  $01, X
 8B5E  A9 05     LDA  #$05
 8B60  A8        TAY  
 8B61  91 00     STA  ($00), Y
 8B63  88        DEY  
 8B64  10 FB     BPL  $8B61
 8B66  1A        INC  
 8B67  18        CLC  
 8B68  65 00     ADC  $00
 8B6A  85 00     STA  $00
 8B6C  90 02     BCC  $8B70
 8B6E  E6 01     INC  $01
 8B70  A5 24     LDA  $24
 8B72  F0 17     BEQ  $8B8B
 8B74  A0 14     LDY  #$14
 8B76  5A        PHY  
 8B77  B9 D1 8B  LDA  $8BD1, Y
 8B7A  91 00     STA  ($00), Y
 8B7C  88        DEY  
 8B7D  10 F8     BPL  $8B77
 8B7F  68        PLA  
 8B80  18        CLC  
 8B81  65 00     ADC  $00
 8B83  85 00     STA  $00
 8B85  A5 01     LDA  $01
 8B87  69 00     ADC  #$00
 8B89  85 01     STA  $01
 8B8B  A0 24     LDY  #$24
 8B8D  5A        PHY  
 8B8E  B9 AD 8B  LDA  $8BAD, Y
 8B91  91 00     STA  ($00), Y
 8B93  88        DEY  
 8B94  10 F8     BPL  $8B8E
 8B96  68        PLA  
 8B97  18        CLC  
 8B98  65 00     ADC  $00
 8B9A  85 00     STA  $00
 8B9C  A5 01     LDA  $01
 8B9E  69 00     ADC  #$00
 8BA0  85 01     STA  $01
 8BA2  CA        DEX  
 8BA3  CA        DEX  
 8BA4  A5 00     LDA  $00
 8BA6  95 00     STA  $00, X
 8BA8  A5 01     LDA  $01
 8BAA  95 01     STA  $01, X
 8BAC  60        RTS  
 8BAD  38        SEC  
 8BAE  A9 00     LDA  #$00
 8BB0  F5 02     SBC  $02, X
 8BB2  95 02     STA  $02, X
 8BB4  A9 80     LDA  #$80
 8BB6  F5 03     SBC  $03, X
 8BB8  95 03     STA  $03, X
 8BBA  48        PHA  
 8BBB  B5 02     LDA  $02, X
 8BBD  48        PHA  
 8BBE  18        CLC  
 8BBF  B5 00     LDA  $00, X
 8BC1  75 02     ADC  $02, X
 8BC3  95 00     STA  $00, X
 8BC5  B5 01     LDA  $01, X
 8BC7  75 03     ADC  $03, X
 8BC9  48        PHA  
 8BCA  B5 00     LDA  $00, X
 8BCC  48        PHA  
 8BCD  E8        INX  
 8BCE  E8        INX  
 8BCF  E8        INX  
 8BD0  E8        INX  
 8BD1  20 34 A3  JSR  $A334
 8BD4  20 BE 8E  JSR  $8EBE
 8BD7  B5 00     LDA  $00, X
 8BD9  15 01     ORA  $01, X
 8BDB  F0 06     BEQ  $8BE3
 8BDD  8A        TXA  
 8BDE  18        CLC  
 8BDF  69 06     ADC  #$06
 8BE1  AA        TAX  
 8BE2  60        RTS  
 8BE3  E8        INX  
 8BE4  E8        INX  
 8BE5  A0 8B     LDY  #$8B
 8BE7  A9 F4     LDA  #$F4
 8BE9  20 0F DB  JSR  $DB0F
 8BEC  A0 DB     LDY  #$DB
 8BEE  A9 55     LDA  #$55
 8BF0  20 0F DB  JSR  $DB0F
 8BF3  60        RTS  
 8BF4  7A        PLY  
 8BF5  68        PLA  
 8BF6  C8        INY  
 8BF7  D0 01     BNE  $8BFA
 8BF9  1A        INC  
 8BFA  84 24     STY  $24
 8BFC  85 25     STA  $25
 8BFE  20 AE DB  JSR  $DBAE
 8C01  A5 02     LDA  $02
 8C03  18        CLC  
 8C04  69 04     ADC  #$04
 8C06  85 26     STA  $26
 8C08  A5 03     LDA  $03
 8C0A  69 00     ADC  #$00
 8C0C  85 27     STA  $27
 8C0E  B2 26     LDA  ($26)
 8C10  18        CLC  
 8C11  69 01     ADC  #$01
 8C13  85 28     STA  $28
 8C15  A0 01     LDY  #$01
 8C17  B1 26     LDA  ($26), Y
 8C19  69 00     ADC  #$00
 8C1B  85 29     STA  $29
 8C1D  A5 24     LDA  $24
 8C1F  92 28     STA  ($28)
 8C21  A5 25     LDA  $25
 8C23  91 28     STA  ($28), Y
 8C25  60        RTS  
 8C26  20 6C DC  JSR  $DC6C
 8C29  20 9F 8D  JSR  $8D9F
 8C2C  20 39 81  JSR  $8139
 8C2F  20 23 A7  JSR  $A723
 8C32  20 4A 93  JSR  $934A
 8C35  20 60 97  JSR  $9760
 8C38  20 D9 9A  JSR  $9AD9
 8C3B  20 69 9F  JSR  $9F69
 8C3E  20 3E 97  JSR  $973E
 8C41  20 7F A4  JSR  $A47F
 8C44  20 A0 A0  JSR  $A0A0
 8C47  60        RTS  
 8C48  CA        DEX  
 8C49  CA        DEX  
 8C4A  A9 29     LDA  #$29
 8C4C  95 00     STA  $00, X
 8C4E  74 01     STZ  $01, X
 8C50  20 BC 98  JSR  $98BC
 8C53  20 7F A4  JSR  $A47F
 8C56  60        RTS  
 8C57  20 D1 9C  JSR  $9CD1
 8C5A  A0 A4     LDY  #$A4
 8C5C  A9 7F     LDA  #$7F
 8C5E  20 0F DB  JSR  $DB0F
 8C61  60        RTS  
 8C62  20 71 DC  JSR  $DC71
 8C65  20 EC A2  JSR  $A2EC
 8C68  20 9F 8D  JSR  $8D9F
 8C6B  20 39 81  JSR  $8139
 8C6E  20 23 A7  JSR  $A723
 8C71  20 4A 93  JSR  $934A
 8C74  20 60 97  JSR  $9760
 8C77  20 D9 9A  JSR  $9AD9
 8C7A  20 69 9F  JSR  $9F69
 8C7D  20 3E 97  JSR  $973E
 8C80  20 14 9A  JSR  $9A14
 8C83  20 15 98  JSR  $9815
 8C86  20 40 95  JSR  $9540
 8C89  20 A6 A0  JSR  $A0A6
 8C8C  20 7F A4  JSR  $A47F
 8C8F  60        RTS  
 8C90  20 E6 8A  JSR  $8AE6
 8C93  A9 3C     LDA  #$3C
 8C95  20 E6 8D  JSR  $8DE6
 8C98  B5 00     LDA  $00, X
 8C9A  48        PHA  
 8C9B  CA        DEX  
 8C9C  CA        DEX  
 8C9D  95 00     STA  $00, X
 8C9F  74 01     STZ  $01, X
 8CA1  20 B8 DC  JSR  $DCB8
 8CA4  A9 3E     LDA  #$3E
 8CA6  20 E6 8D  JSR  $8DE6
 8CA9  A9 20     LDA  #$20
 8CAB  20 E6 8D  JSR  $8DE6
 8CAE  E8        INX  
 8CAF  E8        INX  
 8CB0  E0 78     CPX  #$78
 8CB2  F0 1E     BEQ  $8CD2
 8CB4  7A        PLY  
 8CB5  A9 77     LDA  #$77
 8CB7  85 28     STA  $28
 8CB9  64 29     STZ  $29
 8CBB  CA        DEX  
 8CBC  CA        DEX  
 8CBD  B2 28     LDA  ($28)
 8CBF  95 01     STA  $01, X
 8CC1  C6 28     DEC  $28
 8CC3  B2 28     LDA  ($28)
 8CC5  95 00     STA  $00, X
 8CC7  C6 28     DEC  $28
 8CC9  5A        PHY  
 8CCA  20 26 8C  JSR  $8C26
 8CCD  7A        PLY  
 8CCE  88        DEY  
 8CCF  D0 EA     BNE  $8CBB
 8CD1  48        PHA  
 8CD2  68        PLA  
 8CD3  60        RTS  
 8CD4  20 71 DC  JSR  $DC71
 8CD7  20 09 A3  JSR  $A309
 8CDA  20 76 8A  JSR  $8A76
 8CDD  20 4A 93  JSR  $934A
 8CE0  20 60 97  JSR  $9760
 8CE3  20 D9 9A  JSR  $9AD9
 8CE6  20 69 9F  JSR  $9F69
 8CE9  20 3E 97  JSR  $973E
 8CEC  20 7F A4  JSR  $A47F
 8CEF  20 A0 A0  JSR  $A0A0
 8CF2  60        RTS  
 8CF3  20 76 DC  JSR  $DC76
 8CF6  20 EC A2  JSR  $A2EC
 8CF9  20 09 A3  JSR  $A309
 8CFC  20 76 8A  JSR  $8A76
 8CFF  20 4A 93  JSR  $934A
 8D02  20 60 97  JSR  $9760
 8D05  20 D9 9A  JSR  $9AD9
 8D08  20 69 9F  JSR  $9F69
 8D0B  20 3E 97  JSR  $973E
 8D0E  20 14 9A  JSR  $9A14
 8D11  20 15 98  JSR  $9815
 8D14  20 40 95  JSR  $9540
 8D17  20 A6 A0  JSR  $A0A6
 8D1A  20 7F A4  JSR  $A47F
 8D1D  60        RTS  
 8D1E  20 6C DC  JSR  $DC6C
 8D21  E8        INX  
 8D22  E8        INX  
 8D23  60        RTS  
 8D24  20 71 DC  JSR  $DC71
 8D27  A0 10     LDY  #$10
 8D29  64 26     STZ  $26
 8D2B  20 53 89  JSR  $8953
 8D2E  B5 03     LDA  $03, X
 8D30  20 7C DB  JSR  $DB7C
 8D33  B5 02     LDA  $02, X
 8D35  20 7C DB  JSR  $DB7C
 8D38  20 A0 A0  JSR  $A0A0
 8D3B  20 A0 A0  JSR  $A0A0
 8D3E  B5 00     LDA  $00, X
 8D40  15 01     ORA  $01, X
 8D42  F0 39     BEQ  $8D7D
 8D44  A1 02     LDA  ($02, X)
 8D46  48        PHA  
 8D47  20 7C DB  JSR  $DB7C
 8D4A  20 A0 A0  JSR  $A0A0
 8D4D  68        PLA  
 8D4E  20 52 DC  JSR  $DC52
 8D51  B0 02     BCS  $8D55
 8D53  A9 2E     LDA  #$2E
 8D55  5A        PHY  
 8D56  A4 26     LDY  $26
 8D58  91 00     STA  ($00), Y
 8D5A  E6 26     INC  $26
 8D5C  7A        PLY  
 8D5D  C0 09     CPY  #$09
 8D5F  D0 03     BNE  $8D64
 8D61  20 A0 A0  JSR  $A0A0
 8D64  F6 02     INC  $02, X
 8D66  D0 02     BNE  $8D6A
 8D68  F6 03     INC  $03, X
 8D6A  B5 00     LDA  $00, X
 8D6C  D0 02     BNE  $8D70
 8D6E  D6 01     DEC  $01, X
 8D70  D6 00     DEC  $00, X
 8D72  88        DEY  
 8D73  D0 C9     BNE  $8D3E
 8D75  20 A0 A0  JSR  $A0A0
 8D78  20 8B 8D  JSR  $8D8B
 8D7B  80 AA     BRA  $8D27
 8D7D  A5 26     LDA  $26
 8D7F  F0 06     BEQ  $8D87
 8D81  20 A0 A0  JSR  $A0A0
 8D84  20 8B 8D  JSR  $8D8B
 8D87  20 2C A3  JSR  $A32C
 8D8A  60        RTS  
 8D8B  A0 00     LDY  #$00
 8D8D  B1 00     LDA  ($00), Y
 8D8F  20 E6 8D  JSR  $8DE6
 8D92  C8        INY  
 8D93  C0 08     CPY  #$08
 8D95  D0 03     BNE  $8D9A
 8D97  20 A0 A0  JSR  $A0A0
 8D9A  C6 26     DEC  $26
 8D9C  D0 EF     BNE  $8D8D
 8D9E  60        RTS  
 8D9F  20 6C DC  JSR  $DC6C
 8DA2  CA        DEX  
 8DA3  CA        DEX  
 8DA4  B5 02     LDA  $02, X
 8DA6  95 00     STA  $00, X
 8DA8  B5 03     LDA  $03, X
 8DAA  95 01     STA  $01, X
 8DAC  60        RTS  
 8DAD  20 F7 B3  JSR  $B3F7
 8DB0  60        RTS  
 8DB1  A0 8D     LDY  #$8D
 8DB3  A9 CB     LDA  #$CB
 8DB5  20 0F DB  JSR  $DB0F
 8DB8  20 62 91  JSR  $9162
 8DBB  20 23 A7  JSR  $A723
 8DBE  20 5E 87  JSR  $875E
 8DC1  20 62 91  JSR  $9162
 8DC4  20 D9 9A  JSR  $9AD9
 8DC7  20 09 A1  JSR  $A109
 8DCA  60        RTS  
 8DCB  68        PLA  
 8DCC  85 22     STA  $22
 8DCE  68        PLA  
 8DCF  85 23     STA  $23
 8DD1  A0 01     LDY  #$01
 8DD3  B1 22     LDA  ($22), Y
 8DD5  85 24     STA  $24
 8DD7  C8        INY  
 8DD8  B1 22     LDA  ($22), Y
 8DDA  85 25     STA  $25
 8DDC  6C 24 00  JMP  ($0024)
 8DDF  20 6C DC  JSR  $DC6C
 8DE2  B5 00     LDA  $00, X
 8DE4  E8        INX  
 8DE5  E8        INX  
 8DE6  6C 10 00  JMP  ($0010)
 8DE9  A0 2C     LDY  #$2C
 8DEB  A9 00     LDA  #$00
 8DED  91 1E     STA  ($1E), Y
 8DEF  60        RTS  
 8DF0  A0 8D     LDY  #$8D
 8DF2  A9 1E     LDA  #$1E
 8DF4  20 0F DB  JSR  $DB0F
 8DF7  B5 00     LDA  $00, X
 8DF9  15 01     ORA  $01, X
 8DFB  F0 05     BEQ  $8E02
 8DFD  20 3E A1  JSR  $A13E
 8E00  80 F5     BRA  $8DF7
 8E02  E8        INX  
 8E03  E8        INX  
 8E04  60        RTS  
 8E05  20 6C DC  JSR  $DC6C
 8E08  A0 00     LDY  #$00
 8E0A  5A        PHY  
 8E0B  20 34 A3  JSR  $A334
 8E0E  CA        DEX  
 8E0F  CA        DEX  
 8E10  B9 82 8E  LDA  $8E82, Y
 8E13  95 00     STA  $00, X
 8E15  C8        INY  
 8E16  B9 82 8E  LDA  $8E82, Y
 8E19  95 01     STA  $01, X
 8E1B  C8        INY  
 8E1C  15 00     ORA  $00, X
 8E1E  F0 4D     BEQ  $8E6D
 8E20  5A        PHY  
 8E21  20 3F 89  JSR  $893F
 8E24  20 78 87  JSR  $8778
 8E27  7A        PLY  
 8E28  B5 00     LDA  $00, X
 8E2A  15 01     ORA  $01, X
 8E2C  F0 04     BEQ  $8E32
 8E2E  E8        INX  
 8E2F  E8        INX  
 8E30  80 D9     BRA  $8E0B
 8E32  E8        INX  
 8E33  E8        INX  
 8E34  88        DEY  
 8E35  88        DEY  
 8E36  68        PLA  
 8E37  D0 0D     BNE  $8E46
 8E39  B9 A0 8E  LDA  $8EA0, Y
 8E3C  95 02     STA  $02, X
 8E3E  C8        INY  
 8E3F  B9 A0 8E  LDA  $8EA0, Y
 8E42  95 03     STA  $03, X
 8E44  80 1F     BRA  $8E65
 8E46  CA        DEX  
 8E47  CA        DEX  
 8E48  98        TYA  
 8E49  38        SEC  
 8E4A  E9 18     SBC  #$18
 8E4C  0A        ASL  
 8E4D  A8        TAY  
 8E4E  B9 B6 8E  LDA  $8EB6, Y
 8E51  95 02     STA  $02, X
 8E53  C8        INY  
 8E54  B9 B6 8E  LDA  $8EB6, Y
 8E57  95 03     STA  $03, X
 8E59  C8        INY  
 8E5A  B9 B6 8E  LDA  $8EB6, Y
 8E5D  95 04     STA  $04, X
 8E5F  C8        INY  
 8E60  B9 B6 8E  LDA  $8EB6, Y
 8E63  95 05     STA  $05, X
 8E65  A9 FF     LDA  #$FF
 8E67  95 00     STA  $00, X
 8E69  95 01     STA  $01, X
 8E6B  80 14     BRA  $8E81
 8E6D  68        PLA  
 8E6E  D0 09     BNE  $8E79
 8E70  1A        INC  
 8E71  48        PHA  
 8E72  8A        TXA  
 8E73  18        CLC  
 8E74  69 06     ADC  #$06
 8E76  AA        TAX  
 8E77  80 92     BRA  $8E0B
 8E79  8A        TXA  
 8E7A  18        CLC  
 8E7B  69 0A     ADC  #$0A
 8E7D  AA        TAX  
 8E7E  20 69 8F  JSR  $8F69
 8E81  60        RTS  
 8E82  8F DA 9F DA A5 DA AA DA BC DA C4 DA CD DA D3 DA  |................|
 8E92  D9 DA EC DA F8 DA 00 00 02 DB 08 DB 00 00 FF 7F  |................|
 8EA2  FF 00 54 00 08 00 00 00 FF 00 FF 7F FF FF 80 00  |..T.............|
 8EB2  20 00 09 00 FF 7F FF FF FF FF FF FF              | ...........    |
 8EBE  20 71 DC  JSR  $DC71
 8EC1  B5 00     LDA  $00, X
 8EC3  D5 02     CMP  $02, X
 8EC5  D0 0A     BNE  $8ED1
 8EC7  B5 01     LDA  $01, X
 8EC9  D5 03     CMP  $03, X
 8ECB  D0 04     BNE  $8ED1
 8ECD  A9 FF     LDA  #$FF
 8ECF  80 02     BRA  $8ED3
 8ED1  A9 00     LDA  #$00
 8ED3  95 02     STA  $02, X
 8ED5  95 03     STA  $03, X
 8ED7  E8        INX  
 8ED8  E8        INX  
 8ED9  60        RTS  
 8EDA  CA        DEX  
 8EDB  CA        DEX  
 8EDC  A9 20     LDA  #$20
 8EDE  95 00     STA  $00, X
 8EE0  74 01     STZ  $01, X
 8EE2  80 06     BRA  $8EEA
 8EE4  CA        DEX  
 8EE5  CA        DEX  
 8EE6  74 00     STZ  $00, X
 8EE8  74 01     STZ  $01, X
 8EEA  20 76 DC  JSR  $DC76
 8EED  B5 04     LDA  $04, X
 8EEF  85 24     STA  $24
 8EF1  B5 05     LDA  $05, X
 8EF3  85 25     STA  $25
 8EF5  B5 02     LDA  $02, X
 8EF7  85 26     STA  $26
 8EF9  B5 03     LDA  $03, X
 8EFB  85 27     STA  $27
 8EFD  B5 00     LDA  $00, X
 8EFF  A8        TAY  
 8F00  A9 7F     LDA  #$7F
 8F02  C5 25     CMP  $25
 8F04  90 21     BCC  $8F27
 8F06  D0 06     BNE  $8F0E
 8F08  A9 FF     LDA  #$FF
 8F0A  C5 24     CMP  $24
 8F0C  90 19     BCC  $8F27
 8F0E  A5 26     LDA  $26
 8F10  05 27     ORA  $27
 8F12  F0 13     BEQ  $8F27
 8F14  98        TYA  
 8F15  92 24     STA  ($24)
 8F17  A5 26     LDA  $26
 8F19  D0 02     BNE  $8F1D
 8F1B  C6 27     DEC  $27
 8F1D  C6 26     DEC  $26
 8F1F  E6 24     INC  $24
 8F21  D0 DD     BNE  $8F00
 8F23  E6 25     INC  $25
 8F25  80 D9     BRA  $8F00
 8F27  8A        TXA  
 8F28  18        CLC  
 8F29  69 06     ADC  #$06
 8F2B  AA        TAX  
 8F2C  60        RTS  
 8F2D  20 6C DC  JSR  $DC6C
 8F30  20 34 8F  JSR  $8F34
 8F33  60        RTS  
 8F34  B5 00     LDA  $00, X
 8F36  85 0E     STA  $0E
 8F38  B5 01     LDA  $01, X
 8F3A  85 0F     STA  $0F
 8F3C  E8        INX  
 8F3D  E8        INX  
 8F3E  6C 0E 00  JMP  ($000E)
 8F41  20 76 DC  JSR  $DC76
 8F44  20 52 92  JSR  $9252
 8F47  20 5E 96  JSR  $965E
 8F4A  B5 00     LDA  $00, X
 8F4C  85 0A     STA  $0A
 8F4E  B5 01     LDA  $01, X
 8F50  85 0B     STA  $0B
 8F52  B5 02     LDA  $02, X
 8F54  85 08     STA  $08
 8F56  B5 03     LDA  $03, X
 8F58  85 09     STA  $09
 8F5A  64 0C     STZ  $0C
 8F5C  64 0D     STZ  $0D
 8F5E  20 2C A3  JSR  $A32C
 8F61  20 2D 8F  JSR  $8F2D
 8F64  20 25 9A  JSR  $9A25
 8F67  60        RTS  
 8F68  60        RTS  
 8F69  CA        DEX  
 8F6A  CA        DEX  
 8F6B  74 00     STZ  $00, X
 8F6D  74 01     STZ  $01, X
 8F6F  60        RTS  
 8F70  20 6C DC  JSR  $DC6C
 8F73  A1 00     LDA  ($00, X)
 8F75  A8        TAY  
 8F76  F6 00     INC  $00, X
 8F78  D0 02     BNE  $8F7C
 8F7A  F6 01     INC  $01, X
 8F7C  A1 00     LDA  ($00, X)
 8F7E  95 01     STA  $01, X
 8F80  94 00     STY  $00, X
 8F82  60        RTS  
 8F83  20 6C DC  JSR  $DC6C
 8F86  B5 01     LDA  $01, X
 8F88  48        PHA  
 8F89  B5 00     LDA  $00, X
 8F8B  48        PHA  
 8F8C  20 3F 89  JSR  $893F
 8F8F  20 CB 8F  JSR  $8FCB
 8F92  B5 00     LDA  $00, X
 8F94  15 01     ORA  $01, X
 8F96  D0 0B     BNE  $8FA3
 8F98  20 69 8F  JSR  $8F69
 8F9B  68        PLA  
 8F9C  95 02     STA  $02, X
 8F9E  68        PLA  
 8F9F  95 03     STA  $03, X
 8FA1  80 27     BRA  $8FCA
 8FA3  68        PLA  
 8FA4  68        PLA  
 8FA5  20 9F 8D  JSR  $8D9F
 8FA8  20 D1 95  JSR  $95D1
 8FAB  20 2A A1  JSR  $A12A
 8FAE  A0 00     LDY  #$00
 8FB0  F6 00     INC  $00, X
 8FB2  D0 02     BNE  $8FB6
 8FB4  F6 01     INC  $01, X
 8FB6  A1 00     LDA  ($00, X)
 8FB8  29 04     AND  #$04
 8FBA  D0 08     BNE  $8FC4
 8FBC  A9 FF     LDA  #$FF
 8FBE  95 00     STA  $00, X
 8FC0  95 01     STA  $01, X
 8FC2  80 06     BRA  $8FCA
 8FC4  A9 01     LDA  #$01
 8FC6  95 00     STA  $00, X
 8FC8  74 01     STZ  $01, X
 8FCA  60        RTS  
 8FCB  20 71 DC  JSR  $DC71
 8FCE  B5 00     LDA  $00, X
 8FD0  15 01     ORA  $01, X
 8FD2  D0 03     BNE  $8FD7
 8FD4  4C 70 90  JMP  $9070
 8FD7  64 28     STZ  $28
 8FD9  A0 1E     LDY  #$1E
 8FDB  A5 28     LDA  $28
 8FDD  D1 1E     CMP  ($1E), Y
 8FDF  D0 03     BNE  $8FE4
 8FE1  4C 70 90  JMP  $9070
 8FE4  18        CLC  
 8FE5  69 1F     ADC  #$1F
 8FE7  A8        TAY  
 8FE8  B1 1E     LDA  ($1E), Y
 8FEA  0A        ASL  
 8FEB  18        CLC  
 8FEC  69 06     ADC  #$06
 8FEE  A8        TAY  
 8FEF  B1 1E     LDA  ($1E), Y
 8FF1  85 24     STA  $24
 8FF3  C8        INY  
 8FF4  B1 1E     LDA  ($1E), Y
 8FF6  85 25     STA  $25
 8FF8  B5 02     LDA  $02, X
 8FFA  85 26     STA  $26
 8FFC  B5 03     LDA  $03, X
 8FFE  85 27     STA  $27
 9000  B2 24     LDA  ($24)
 9002  D5 00     CMP  $00, X
 9004  D0 54     BNE  $905A
 9006  B2 26     LDA  ($26)
 9008  C9 5B     CMP  #$5B
 900A  B0 07     BCS  $9013
 900C  C9 41     CMP  #$41
 900E  90 03     BCC  $9013
 9010  18        CLC  
 9011  69 20     ADC  #$20
 9013  A0 08     LDY  #$08
 9015  D1 24     CMP  ($24), Y
 9017  D0 41     BNE  $905A
 9019  B5 00     LDA  $00, X
 901B  3A        DEC  
 901C  F0 2C     BEQ  $904A
 901E  A5 24     LDA  $24
 9020  48        PHA  
 9021  18        CLC  
 9022  69 08     ADC  #$08
 9024  85 24     STA  $24
 9026  A5 25     LDA  $25
 9028  48        PHA  
 9029  69 00     ADC  #$00
 902B  85 25     STA  $25
 902D  B4 00     LDY  $00, X
 902F  88        DEY  
 9030  B1 26     LDA  ($26), Y
 9032  C9 5B     CMP  #$5B
 9034  B0 07     BCS  $903D
 9036  C9 41     CMP  #$41
 9038  90 03     BCC  $903D
 903A  18        CLC  
 903B  69 20     ADC  #$20
 903D  D1 24     CMP  ($24), Y
 903F  D0 13     BNE  $9054
 9041  88        DEY  
 9042  D0 EC     BNE  $9030
 9044  68        PLA  
 9045  85 25     STA  $25
 9047  68        PLA  
 9048  85 24     STA  $24
 904A  A5 24     LDA  $24
 904C  95 02     STA  $02, X
 904E  A5 25     LDA  $25
 9050  95 03     STA  $03, X
 9052  80 20     BRA  $9074
 9054  68        PLA  
 9055  85 25     STA  $25
 9057  68        PLA  
 9058  85 24     STA  $24
 905A  A0 02     LDY  #$02
 905C  B1 24     LDA  ($24), Y
 905E  48        PHA  
 905F  C8        INY  
 9060  B1 24     LDA  ($24), Y
 9062  85 25     STA  $25
 9064  68        PLA  
 9065  85 24     STA  $24
 9067  05 25     ORA  $25
 9069  D0 95     BNE  $9000
 906B  E6 28     INC  $28
 906D  4C D9 8F  JMP  $8FD9
 9070  74 02     STZ  $02, X
 9072  74 03     STZ  $03, X
 9074  E8        INX  
 9075  E8        INX  
 9076  60        RTS  
 9077  20 40 9E  JSR  $9E40
 907A  A0 2C     LDY  #$2C
 907C  A9 00     LDA  #$00
 907E  91 1E     STA  ($1E), Y
 9080  60        RTS  
 9081  20 76 DC  JSR  $DC76
 9084  64 26     STZ  $26
 9086  B5 01     LDA  $01, X
 9088  10 0E     BPL  $9098
 908A  E6 26     INC  $26
 908C  20 13 96  JSR  $9613
 908F  20 EC A2  JSR  $A2EC
 9092  20 31 8B  JSR  $8B31
 9095  20 14 9A  JSR  $9A14
 9098  B5 03     LDA  $03, X
 909A  10 0D     BPL  $90A9
 909C  18        CLC  
 909D  B5 00     LDA  $00, X
 909F  75 02     ADC  $02, X
 90A1  95 02     STA  $02, X
 90A3  B5 01     LDA  $01, X
 90A5  75 03     ADC  $03, X
 90A7  95 03     STA  $03, X
 90A9  20 36 A5  JSR  $A536
 90AC  A5 26     LDA  $26
 90AE  F0 07     BEQ  $90B7
 90B0  E8        INX  
 90B1  E8        INX  
 90B2  20 13 96  JSR  $9613
 90B5  CA        DEX  
 90B6  CA        DEX  
 90B7  60        RTS  
 90B8  A0 1F     LDY  #$1F
 90BA  A9 00     LDA  #$00
 90BC  91 1E     STA  ($1E), Y
 90BE  60        RTS  
 90BF  A9 FF     LDA  #$FF
 90C1  85 24     STA  $24
 90C3  80 11     BRA  $90D6
 90C5  20 71 DC  JSR  $DC71
 90C8  64 24     STZ  $24
 90CA  B5 00     LDA  $00, X
 90CC  15 01     ORA  $01, X
 90CE  D0 06     BNE  $90D6
 90D0  E8        INX  
 90D1  E8        INX  
 90D2  E8        INX  
 90D3  E8        INX  
 90D4  80 42     BRA  $9118
 90D6  A0 01     LDY  #$01
 90D8  B1 1E     LDA  ($1E), Y
 90DA  48        PHA  
 90DB  88        DEY  
 90DC  B1 1E     LDA  ($1E), Y
 90DE  48        PHA  
 90DF  A5 24     LDA  $24
 90E1  D0 05     BNE  $90E8
 90E3  91 1E     STA  ($1E), Y
 90E5  C8        INY  
 90E6  91 1E     STA  ($1E), Y
 90E8  20 52 92  JSR  $9252
 90EB  A9 FF     LDA  #$FF
 90ED  85 06     STA  $06
 90EF  85 07     STA  $07
 90F1  64 0C     STZ  $0C
 90F3  64 0D     STZ  $0D
 90F5  B5 00     LDA  $00, X
 90F7  85 0A     STA  $0A
 90F9  B5 01     LDA  $01, X
 90FB  85 0B     STA  $0B
 90FD  B5 02     LDA  $02, X
 90FF  85 08     STA  $08
 9101  B5 03     LDA  $03, X
 9103  85 09     STA  $09
 9105  E8        INX  
 9106  E8        INX  
 9107  E8        INX  
 9108  E8        INX  
 9109  20 D4 DB  JSR  $DBD4
 910C  20 25 9A  JSR  $9A25
 910F  A0 00     LDY  #$00
 9111  68        PLA  
 9112  91 1E     STA  ($1E), Y
 9114  C8        INY  
 9115  68        PLA  
 9116  91 1E     STA  ($1E), Y
 9118  60        RTS  
 9119  CA        DEX  
 911A  CA        DEX  
 911B  A0 04     LDY  #$04
 911D  B1 1E     LDA  ($1E), Y
 911F  95 00     STA  $00, X
 9121  74 01     STZ  $01, X
 9123  60        RTS  
 9124  A0 1E     LDY  #$1E
 9126  B1 1E     LDA  ($1E), Y
 9128  85 24     STA  $24
 912A  F0 16     BEQ  $9142
 912C  C6 24     DEC  $24
 912E  A9 1F     LDA  #$1F
 9130  18        CLC  
 9131  65 24     ADC  $24
 9133  A8        TAY  
 9134  CA        DEX  
 9135  CA        DEX  
 9136  B1 1E     LDA  ($1E), Y
 9138  95 00     STA  $00, X
 913A  74 01     STZ  $01, X
 913C  A9 00     LDA  #$00
 913E  C5 24     CMP  $24
 9140  D0 EA     BNE  $912C
 9142  CA        DEX  
 9143  CA        DEX  
 9144  A0 1E     LDY  #$1E
 9146  B1 1E     LDA  ($1E), Y
 9148  95 00     STA  $00, X
 914A  74 01     STZ  $01, X
 914C  60        RTS  
 914D  20 71 DC  JSR  $DC71
 9150  A0 00     LDY  #$00
 9152  20 93 DB  JSR  $DB93
 9155  F0 03     BEQ  $915A
 9157  10 01     BPL  $915A
 9159  88        DEY  
 915A  98        TYA  
 915B  E8        INX  
 915C  E8        INX  
 915D  95 00     STA  $00, X
 915F  95 01     STA  $01, X
 9161  60        RTS  
 9162  CA        DEX  
 9163  CA        DEX  
 9164  A5 00     LDA  $00
 9166  95 00     STA  $00, X
 9168  A5 01     LDA  $01
 916A  95 01     STA  $01, X
 916C  60        RTS  
 916D  A9 10     LDA  #$10
 916F  85 18     STA  $18
 9171  64 19     STZ  $19
 9173  60        RTS  
 9174  20 76 DC  JSR  $DC76
 9177  20 9F 8D  JSR  $8D9F
 917A  20 1E A4  JSR  $A41E
 917D  B5 00     LDA  $00, X
 917F  15 01     ORA  $01, X
 9181  F0 36     BEQ  $91B9
 9183  20 3C 86  JSR  $863C
 9186  20 1E A4  JSR  $A41E
 9189  20 23 A7  JSR  $A723
 918C  20 23 A7  JSR  $A723
 918F  20 A4 A3  JSR  $A3A4
 9192  20 39 A2  JSR  $A239
 9195  B5 00     LDA  $00, X
 9197  15 01     ORA  $01, X
 9199  D0 17     BNE  $91B2
 919B  20 2C A3  JSR  $A32C
 919E  20 70 8A  JSR  $8A70
 91A1  20 FF 99  JSR  $99FF
 91A4  20 05 86  JSR  $8605
 91A7  20 14 9A  JSR  $9A14
 91AA  20 9F 97  JSR  $979F
 91AD  20 EC A2  JSR  $A2EC
 91B0  80 CB     BRA  $917D
 91B2  8A        TXA  
 91B3  18        CLC  
 91B4  69 08     ADC  #$08
 91B6  AA        TAX  
 91B7  80 C4     BRA  $917D
 91B9  E8        INX  
 91BA  E8        INX  
 91BB  E8        INX  
 91BC  E8        INX  
 91BD  20 A4 A3  JSR  $A3A4
 91C0  20 2A A1  JSR  $A12A
 91C3  20 40 95  JSR  $9540
 91C6  60        RTS  
 91C7  20 6C DC  JSR  $DC6C
 91CA  A5 34     LDA  $34
 91CC  D0 02     BNE  $91D0
 91CE  C6 35     DEC  $35
 91D0  C6 34     DEC  $34
 91D2  B5 00     LDA  $00, X
 91D4  92 34     STA  ($34)
 91D6  E8        INX  
 91D7  E8        INX  
 91D8  60        RTS  
 91D9  CA        DEX  
 91DA  CA        DEX  
 91DB  86 2A     STX  $2A
 91DD  BA        TSX  
 91DE  38        SEC  
 91DF  BD 01 01  LDA  $0101, X
 91E2  FD 03 01  SBC  $0103, X
 91E5  A8        TAY  
 91E6  BD 02 01  LDA  $0102, X
 91E9  FD 04 01  SBC  $0104, X
 91EC  A6 2A     LDX  $2A
 91EE  95 01     STA  $01, X
 91F0  94 00     STY  $00, X
 91F2  60        RTS  
 91F3  A0 92     LDY  #$92
 91F5  A9 04     LDA  #$04
 91F7  20 0F DB  JSR  $DB0F
 91FA  20 62 91  JSR  $9162
 91FD  20 23 A7  JSR  $A723
 9200  20 5E 87  JSR  $875E
 9203  60        RTS  
 9204  68        PLA  
 9205  85 22     STA  $22
 9207  68        PLA  
 9208  85 23     STA  $23
 920A  B5 00     LDA  $00, X
 920C  15 01     ORA  $01, X
 920E  F0 0F     BEQ  $921F
 9210  A5 22     LDA  $22
 9212  18        CLC  
 9213  69 02     ADC  #$02
 9215  85 24     STA  $24
 9217  A5 23     LDA  $23
 9219  69 00     ADC  #$00
 921B  85 25     STA  $25
 921D  80 13     BRA  $9232
 921F  A0 01     LDY  #$01
 9221  B1 22     LDA  ($22), Y
 9223  85 24     STA  $24
 9225  C8        INY  
 9226  B1 22     LDA  ($22), Y
 9228  85 25     STA  $25
 922A  A5 24     LDA  $24
 922C  D0 02     BNE  $9230
 922E  C6 25     DEC  $25
 9230  C6 24     DEC  $24
 9232  A5 25     LDA  $25
 9234  48        PHA  
 9235  A5 24     LDA  $24
 9237  48        PHA  
 9238  E8        INX  
 9239  E8        INX  
 923A  60        RTS  
 923B  20 AE DB  JSR  $DBAE
 923E  A0 01     LDY  #$01
 9240  B1 02     LDA  ($02), Y
 9242  09 04     ORA  #$04
 9244  91 02     STA  ($02), Y
 9246  60        RTS  
 9247  CA        DEX  
 9248  CA        DEX  
 9249  A9 12     LDA  #$12
 924B  95 00     STA  $00, X
 924D  A9 00     LDA  #$00
 924F  95 01     STA  $01, X
 9251  60        RTS  
 9252  68        PLA  
 9253  85 24     STA  $24
 9255  68        PLA  
 9256  85 25     STA  $25
 9258  A0 07     LDY  #$07
 925A  B9 06 00  LDA  $0006, Y
 925D  48        PHA  
 925E  88        DEY  
 925F  10 F9     BPL  $925A
 9261  A5 25     LDA  $25
 9263  48        PHA  
 9264  A5 24     LDA  $24
 9266  48        PHA  
 9267  60        RTS  
 9268  20 6C DC  JSR  $DC6C
 926B  CA        DEX  
 926C  CA        DEX  
 926D  74 00     STZ  $00, X
 926F  74 01     STZ  $01, X
 9271  B5 00     LDA  $00, X
 9273  0A        ASL  
 9274  18        CLC  
 9275  69 06     ADC  #$06
 9277  A8        TAY  
 9278  B1 1E     LDA  ($1E), Y
 927A  85 26     STA  $26
 927C  C8        INY  
 927D  B1 1E     LDA  ($1E), Y
 927F  85 27     STA  $27
 9281  A5 26     LDA  $26
 9283  05 27     ORA  $27
 9285  F0 38     BEQ  $92BF
 9287  B5 02     LDA  $02, X
 9289  85 28     STA  $28
 928B  B5 03     LDA  $03, X
 928D  85 29     STA  $29
 928F  A0 04     LDY  #$04
 9291  B1 26     LDA  ($26), Y
 9293  C5 28     CMP  $28
 9295  D0 07     BNE  $929E
 9297  C8        INY  
 9298  B1 26     LDA  ($26), Y
 929A  C5 29     CMP  $29
 929C  F0 32     BEQ  $92D0
 929E  18        CLC  
 929F  A5 26     LDA  $26
 92A1  69 02     ADC  #$02
 92A3  85 26     STA  $26
 92A5  A5 27     LDA  $27
 92A7  69 00     ADC  #$00
 92A9  85 27     STA  $27
 92AB  A0 00     LDY  #$00
 92AD  B1 26     LDA  ($26), Y
 92AF  48        PHA  
 92B0  C8        INY  
 92B1  11 26     ORA  ($26), Y
 92B3  F0 09     BEQ  $92BE
 92B5  B1 26     LDA  ($26), Y
 92B7  85 27     STA  $27
 92B9  68        PLA  
 92BA  85 26     STA  $26
 92BC  80 D1     BRA  $928F
 92BE  68        PLA  
 92BF  B5 00     LDA  $00, X
 92C1  1A        INC  
 92C2  95 00     STA  $00, X
 92C4  C9 0C     CMP  #$0C
 92C6  D0 A9     BNE  $9271
 92C8  E8        INX  
 92C9  E8        INX  
 92CA  74 00     STZ  $00, X
 92CC  74 01     STZ  $01, X
 92CE  80 0A     BRA  $92DA
 92D0  E8        INX  
 92D1  E8        INX  
 92D2  A5 26     LDA  $26
 92D4  95 00     STA  $00, X
 92D6  A5 27     LDA  $27
 92D8  95 01     STA  $01, X
 92DA  60        RTS  
 92DB  20 6C DC  JSR  $DC6C
 92DE  A9 FF     LDA  #$FF
 92E0  55 00     EOR  $00, X
 92E2  95 00     STA  $00, X
 92E4  A9 FF     LDA  #$FF
 92E6  55 01     EOR  $01, X
 92E8  95 01     STA  $01, X
 92EA  60        RTS  
 92EB  A5 16     LDA  $16
 92ED  05 17     ORA  $17
 92EF  F0 0C     BEQ  $92FD
 92F1  20 8E 85  JSR  $858E
 92F4  A0 8A     LDY  #$8A
 92F6  A9 D6     LDA  #$D6
 92F8  20 0F DB  JSR  $DB0F
 92FB  80 06     BRA  $9303
 92FD  20 8D A1  JSR  $A18D
 9300  20 D6 8A  JSR  $8AD6
 9303  60        RTS  
 9304  CA        DEX  
 9305  CA        DEX  
 9306  86 2A     STX  $2A
 9308  BA        TSX  
 9309  38        SEC  
 930A  BD 07 01  LDA  $0107, X
 930D  FD 09 01  SBC  $0109, X
 9310  A8        TAY  
 9311  BD 08 01  LDA  $0108, X
 9314  FD 0A 01  SBC  $010A, X
 9317  A6 2A     LDX  $2A
 9319  95 01     STA  $01, X
 931B  94 00     STY  $00, X
 931D  60        RTS  
 931E  20 28 93  JSR  $9328
 9321  CA        DEX  
 9322  CA        DEX  
 9323  95 00     STA  $00, X
 9325  74 01     STZ  $01, X
 9327  60        RTS  
 9328  6C 12 00  JMP  ($0012)
 932B  CA        DEX  
 932C  CA        DEX  
 932D  20 AE DB  JSR  $DBAE
 9330  A5 02     LDA  $02
 9332  95 00     STA  $00, X
 9334  A5 03     LDA  $03
 9336  95 01     STA  $01, X
 9338  60        RTS  
 9339  20 2B 93  JSR  $932B
 933C  20 D1 95  JSR  $95D1
 933F  60        RTS  
 9340  68        PLA  
 9341  68        PLA  
 9342  68        PLA  
 9343  68        PLA  
 9344  60        RTS  
 9345  64 16     STZ  $16
 9347  64 17     STZ  $17
 9349  60        RTS  
 934A  20 23 98  JSR  $9823
 934D  B5 00     LDA  $00, X
 934F  85 34     STA  $34
 9351  B5 01     LDA  $01, X
 9353  85 35     STA  $35
 9355  E8        INX  
 9356  E8        INX  
 9357  60        RTS  
 9358  20 71 DC  JSR  $DC71
 935B  A0 00     LDY  #$00
 935D  20 93 DB  JSR  $DB93
 9360  F0 03     BEQ  $9365
 9362  30 01     BMI  $9365
 9364  88        DEY  
 9365  98        TYA  
 9366  E8        INX  
 9367  E8        INX  
 9368  95 00     STA  $00, X
 936A  95 01     STA  $01, X
 936C  60        RTS  
 936D  20 6C DC  JSR  $DC6C
 9370  20 5B 9E  JSR  $9E5B
 9373  20 09 A1  JSR  $A109
 9376  20 C1 A7  JSR  $A7C1
 9379  60        RTS  
 937A  20 6C DC  JSR  $DC6C
 937D  A0 93     LDY  #$93
 937F  A9 88     LDA  #$88
 9381  20 0F DB  JSR  $DB0F
 9384  20 5E 87  JSR  $875E
 9387  60        RTS  
 9388  CA        DEX  
 9389  CA        DEX  
 938A  68        PLA  
 938B  85 24     STA  $24
 938D  68        PLA  
 938E  85 25     STA  $25
 9390  A0 01     LDY  #$01
 9392  B1 24     LDA  ($24), Y
 9394  95 00     STA  $00, X
 9396  C8        INY  
 9397  B1 24     LDA  ($24), Y
 9399  95 01     STA  $01, X
 939B  98        TYA  
 939C  18        CLC  
 939D  65 24     ADC  $24
 939F  A8        TAY  
 93A0  A5 25     LDA  $25
 93A2  69 00     ADC  #$00
 93A4  48        PHA  
 93A5  5A        PHY  
 93A6  60        RTS  
 93A7  20 6C DC  JSR  $DC6C
 93AA  A0 01     LDY  #$01
 93AC  B1 1E     LDA  ($1E), Y
 93AE  48        PHA  
 93AF  88        DEY  
 93B0  B1 1E     LDA  ($1E), Y
 93B2  48        PHA  
 93B3  B5 00     LDA  $00, X
 93B5  91 1E     STA  ($1E), Y
 93B7  C8        INY  
 93B8  B5 01     LDA  $01, X
 93BA  91 1E     STA  ($1E), Y
 93BC  20 B1 83  JSR  $83B1
 93BF  CA        DEX  
 93C0  CA        DEX  
 93C1  A9 04     LDA  #$04
 93C3  95 01     STA  $01, X
 93C5  74 00     STZ  $00, X
 93C7  20 BF 90  JSR  $90BF
 93CA  A0 00     LDY  #$00
 93CC  68        PLA  
 93CD  91 1E     STA  ($1E), Y
 93CF  C8        INY  
 93D0  68        PLA  
 93D1  91 1E     STA  ($1E), Y
 93D3  88        DEY  
 93D4  11 1E     ORA  ($1E), Y
 93D6  F0 12     BEQ  $93EA
 93D8  CA        DEX  
 93D9  CA        DEX  
 93DA  A0 00     LDY  #$00
 93DC  B1 1E     LDA  ($1E), Y
 93DE  95 00     STA  $00, X
 93E0  C8        INY  
 93E1  B1 1E     LDA  ($1E), Y
 93E3  95 01     STA  $01, X
 93E5  20 B1 83  JSR  $83B1
 93E8  E8        INX  
 93E9  E8        INX  
 93EA  60        RTS  
 93EB  A0 97     LDY  #$97
 93ED  A9 8A     LDA  #$8A
 93EF  20 0F DB  JSR  $DB0F
 93F2  A0 11     LDY  #$11
 93F4  5A        PHY  
 93F5  B9 59 94  LDA  $9459, Y
 93F8  91 00     STA  ($00), Y
 93FA  88        DEY  
 93FB  10 F8     BPL  $93F5
 93FD  68        PLA  
 93FE  18        CLC  
 93FF  65 00     ADC  $00
 9401  85 00     STA  $00
 9403  A5 01     LDA  $01
 9405  69 00     ADC  #$00
 9407  85 01     STA  $01
 9409  20 5E 87  JSR  $875E
 940C  A9 68     LDA  #$68
 940E  A0 06     LDY  #$06
 9410  91 00     STA  ($00), Y
 9412  88        DEY  
 9413  10 FB     BPL  $9410
 9415  A9 06     LDA  #$06
 9417  18        CLC  
 9418  65 00     ADC  $00
 941A  85 00     STA  $00
 941C  A5 01     LDA  $01
 941E  69 00     ADC  #$00
 9420  85 01     STA  $01
 9422  B5 00     LDA  $00, X
 9424  85 24     STA  $24
 9426  B5 01     LDA  $01, X
 9428  85 25     STA  $25
 942A  E8        INX  
 942B  E8        INX  
 942C  A5 00     LDA  $00
 942E  38        SEC  
 942F  E9 01     SBC  #$01
 9431  85 26     STA  $26
 9433  A5 01     LDA  $01
 9435  E9 00     SBC  #$00
 9437  85 27     STA  $27
 9439  A0 00     LDY  #$00
 943B  A9 A9     LDA  #$A9
 943D  91 24     STA  ($24), Y
 943F  C8        INY  
 9440  A5 27     LDA  $27
 9442  91 24     STA  ($24), Y
 9444  C8        INY  
 9445  A9 48     LDA  #$48
 9447  91 24     STA  ($24), Y
 9449  C8        INY  
 944A  A9 A9     LDA  #$A9
 944C  91 24     STA  ($24), Y
 944E  C8        INY  
 944F  A5 26     LDA  $26
 9451  91 24     STA  ($24), Y
 9453  C8        INY  
 9454  A9 48     LDA  #$48
 9456  91 24     STA  ($24), Y
 9458  60        RTS  
 9459  18        CLC  
 945A  68        PLA  
 945B  75 00     ADC  $00, X
 945D  A8        TAY  
 945E  B8        CLV  
 945F  68        PLA  
 9460  75 01     ADC  $01, X
 9462  48        PHA  
 9463  98        TYA  
 9464  48        PHA  
 9465  E8        INX  
 9466  E8        INX  
 9467  70 03     BVS  $946C
 9469  4C                                               |L               |
 946A  20 71 DC  JSR  $DC71
 946D  B5 00     LDA  $00, X
 946F  29 0F     AND  #$0F
 9471  F0 08     BEQ  $947B
 9473  A8        TAY  
 9474  16 02     ASL  $02, X
 9476  36 03     ROL  $03, X
 9478  88        DEY  
 9479  D0 F9     BNE  $9474
 947B  E8        INX  
 947C  E8        INX  
 947D  60        RTS  
 947E  20 71 DC  JSR  $DC71
 9481  B5 01     LDA  $01, X
 9483  55 03     EOR  $03, X
 9485  48        PHA  
 9486  20 39 81  JSR  $8139
 9489  20 2A A1  JSR  $A12A
 948C  20 39 81  JSR  $8139
 948F  20 78 A5  JSR  $A578
 9492  68        PLA  
 9493  10 03     BPL  $9498
 9495  20 31 8B  JSR  $8B31
 9498  60        RTS  
 9499  20 AE DB  JSR  $DBAE
 949C  A5 02     LDA  $02
 949E  48        PHA  
 949F  A5 03     LDA  $03
 94A1  48        PHA  
 94A2  A5 00     LDA  $00
 94A4  48        PHA  
 94A5  A5 01     LDA  $01
 94A7  48        PHA  
 94A8  20 59 89  JSR  $8959
 94AB  A5 00     LDA  $00
 94AD  38        SEC  
 94AE  E9 02     SBC  #$02
 94B0  85 00     STA  $00
 94B2  A5 01     LDA  $01
 94B4  E9 00     SBC  #$00
 94B6  85 01     STA  $01
 94B8  A0 94     LDY  #$94
 94BA  A9 D7     LDA  #$D7
 94BC  20 1B DB  JSR  $DB1B
 94BF  7A        PLY  
 94C0  68        PLA  
 94C1  20 1B DB  JSR  $DB1B
 94C4  7A        PLY  
 94C5  68        PLA  
 94C6  20 1B DB  JSR  $DB1B
 94C9  A0 04     LDY  #$04
 94CB  B1 1E     LDA  ($1E), Y
 94CD  20 1F DB  JSR  $DB1F
 94D0  C8        INY  
 94D1  98        TYA  
 94D2  C9 28     CMP  #$28
 94D4  D0 F5     BNE  $94CB
 94D6  60        RTS  
 94D7  68        PLA  
 94D8  85 24     STA  $24
 94DA  68        PLA  
 94DB  85 25     STA  $25
 94DD  E6 24     INC  $24
 94DF  D0 02     BNE  $94E3
 94E1  E6 25     INC  $25
 94E3  A0 00     LDY  #$00
 94E5  B1 24     LDA  ($24), Y
 94E7  85 00     STA  $00
 94E9  C8        INY  
 94EA  B1 24     LDA  ($24), Y
 94EC  85 01     STA  $01
 94EE  C8        INY  
 94EF  B1 24     LDA  ($24), Y
 94F1  85 02     STA  $02
 94F3  C8        INY  
 94F4  B1 24     LDA  ($24), Y
 94F6  85 03     STA  $03
 94F8  A0 04     LDY  #$04
 94FA  B1 24     LDA  ($24), Y
 94FC  91 1E     STA  ($1E), Y
 94FE  C8        INY  
 94FF  98        TYA  
 9500  C9 28     CMP  #$28
 9502  D0 F6     BNE  $94FA
 9504  20 C1 DB  JSR  $DBC1
 9507  60        RTS  
 9508  20 71 DC  JSR  $DC71
 950B  B5 00     LDA  $00, X
 950D  D5 02     CMP  $02, X
 950F  B5 01     LDA  $01, X
 9511  F5 03     SBC  $03, X
 9513  50 02     BVC  $9517
 9515  49 80     EOR  #$80
 9517  30 08     BMI  $9521
 9519  B5 00     LDA  $00, X
 951B  95 02     STA  $02, X
 951D  B5 01     LDA  $01, X
 951F  95 03     STA  $03, X
 9521  E8        INX  
 9522  E8        INX  
 9523  60        RTS  
 9524  20 71 DC  JSR  $DC71
 9527  B5 00     LDA  $00, X
 9529  D5 02     CMP  $02, X
 952B  B5 01     LDA  $01, X
 952D  F5 03     SBC  $03, X
 952F  50 02     BVC  $9533
 9531  49 80     EOR  #$80
 9533  10 08     BPL  $953D
 9535  B5 00     LDA  $00, X
 9537  95 02     STA  $02, X
 9539  B5 01     LDA  $01, X
 953B  95 03     STA  $03, X
 953D  E8        INX  
 953E  E8        INX  
 953F  60        RTS  
 9540  20 71 DC  JSR  $DC71
 9543  38        SEC  
 9544  B5 02     LDA  $02, X
 9546  F5 00     SBC  $00, X
 9548  95 02     STA  $02, X
 954A  B5 03     LDA  $03, X
 954C  F5 01     SBC  $01, X
 954E  95 03     STA  $03, X
 9550  E8        INX  
 9551  E8        INX  
 9552  60        RTS  
 9553  20 71 DC  JSR  $DC71
 9556  B5 00     LDA  $00, X
 9558  15 01     ORA  $01, X
 955A  F0 0F     BEQ  $956B
 955C  A1 02     LDA  ($02, X)
 955E  20 5F DC  JSR  $DC5F
 9561  90 08     BCC  $956B
 9563  20 8A 97  JSR  $978A
 9566  20 9B 9F  JSR  $9F9B
 9569  80 EB     BRA  $9556
 956B  60        RTS  
 956C  20 71 DC  JSR  $DC71
 956F  B5 00     LDA  $00, X
 9571  15 01     ORA  $01, X
 9573  F0 33     BEQ  $95A8
 9575  18        CLC  
 9576  B5 02     LDA  $02, X
 9578  75 00     ADC  $00, X
 957A  85 24     STA  $24
 957C  B5 03     LDA  $03, X
 957E  75 01     ADC  $01, X
 9580  85 25     STA  $25
 9582  A5 24     LDA  $24
 9584  D0 02     BNE  $9588
 9586  C6 25     DEC  $25
 9588  C6 24     DEC  $24
 958A  B2 24     LDA  ($24)
 958C  C9 20     CMP  #$20
 958E  D0 18     BNE  $95A8
 9590  A5 24     LDA  $24
 9592  D0 02     BNE  $9596
 9594  C6 25     DEC  $25
 9596  C6 24     DEC  $24
 9598  B5 00     LDA  $00, X
 959A  D0 02     BNE  $959E
 959C  D6 01     DEC  $01, X
 959E  D6 00     DEC  $00, X
 95A0  B5 00     LDA  $00, X
 95A2  15 01     ORA  $01, X
 95A4  F0 02     BEQ  $95A8
 95A6  80 E2     BRA  $958A
 95A8  60        RTS  
 95A9  20 71 DC  JSR  $DC71
 95AC  20 83 9F  JSR  $9F83
 95AF  E8        INX  
 95B0  E8        INX  
 95B1  60        RTS  
 95B2  B5 03     LDA  $03, X
 95B4  D5 05     CMP  $05, X
 95B6  F0 05     BEQ  $95BD
 95B8  B0 0E     BCS  $95C8
 95BA  4C 89 86  JMP  $8689
 95BD  B5 02     LDA  $02, X
 95BF  D5 04     CMP  $04, X
 95C1  F0 08     BEQ  $95CB
 95C3  B0 03     BCS  $95C8
 95C5  4C 89 86  JMP  $8689
 95C8  4C C4 86  JMP  $86C4
 95CB  8A        TXA  
 95CC  18        CLC  
 95CD  69 06     ADC  #$06
 95CF  AA        TAX  
 95D0  60        RTS  
 95D1  20 6C DC  JSR  $DC6C
 95D4  B5 00     LDA  $00, X
 95D6  18        CLC  
 95D7  69 04     ADC  #$04
 95D9  85 28     STA  $28
 95DB  B5 01     LDA  $01, X
 95DD  90 01     BCC  $95E0
 95DF  1A        INC  
 95E0  85 29     STA  $29
 95E2  A0 00     LDY  #$00
 95E4  B1 28     LDA  ($28), Y
 95E6  95 00     STA  $00, X
 95E8  C8        INY  
 95E9  B1 28     LDA  ($28), Y
 95EB  95 01     STA  $01, X
 95ED  60        RTS  
 95EE  20 6C DC  JSR  $DC6C
 95F1  CA        DEX  
 95F2  CA        DEX  
 95F3  A1 02     LDA  ($02, X)
 95F5  95 00     STA  $00, X
 95F7  74 01     STZ  $01, X
 95F9  B5 02     LDA  $02, X
 95FB  18        CLC  
 95FC  69 08     ADC  #$08
 95FE  A8        TAY  
 95FF  B5 03     LDA  $03, X
 9601  69 00     ADC  #$00
 9603  95 03     STA  $03, X
 9605  94 02     STY  $02, X
 9607  60        RTS  
 9608  CA        DEX  
 9609  CA        DEX  
 960A  A9 1A     LDA  #$1A
 960C  95 00     STA  $00, X
 960E  A9 00     LDA  #$00
 9610  95 01     STA  $01, X
 9612  60        RTS  
 9613  20 6C DC  JSR  $DC6C
 9616  A9 00     LDA  #$00
 9618  38        SEC  
 9619  F5 00     SBC  $00, X
 961B  95 00     STA  $00, X
 961D  A9 00     LDA  #$00
 961F  F5 01     SBC  $01, X
 9621  95 01     STA  $01, X
 9623  60        RTS  
 9624  20 AE DB  JSR  $DBAE
 9627  A0 01     LDY  #$01
 9629  B1 02     LDA  ($02), Y
 962B  09 08     ORA  #$08
 962D  29 FD     AND  #$FD
 962F  91 02     STA  ($02), Y
 9631  60        RTS  
 9632  20 71 DC  JSR  $DC71
 9635  B5 00     LDA  $00, X
 9637  95 02     STA  $02, X
 9639  B5 01     LDA  $01, X
 963B  95 03     STA  $03, X
 963D  E8        INX  
 963E  E8        INX  
 963F  60        RTS  
 9640  20 71 DC  JSR  $DC71
 9643  A0 00     LDY  #$00
 9645  B5 00     LDA  $00, X
 9647  D5 02     CMP  $02, X
 9649  D0 0A     BNE  $9655
 964B  B5 01     LDA  $01, X
 964D  D5 03     CMP  $03, X
 964F  D0 04     BNE  $9655
 9651  A9 FF     LDA  #$FF
 9653  80 01     BRA  $9656
 9655  88        DEY  
 9656  98        TYA  
 9657  E8        INX  
 9658  E8        INX  
 9659  95 00     STA  $00, X
 965B  95 01     STA  $01, X
 965D  60        RTS  
 965E  20 76 DC  JSR  $DC76
 9661  B4 01     LDY  $01, X
 9663  B5 03     LDA  $03, X
 9665  95 01     STA  $01, X
 9667  B5 05     LDA  $05, X
 9669  95 03     STA  $03, X
 966B  94 05     STY  $05, X
 966D  B4 00     LDY  $00, X
 966F  B5 02     LDA  $02, X
 9671  95 00     STA  $00, X
 9673  B5 04     LDA  $04, X
 9675  95 02     STA  $02, X
 9677  94 04     STY  $04, X
 9679  60        RTS  
 967A  20 71 DC  JSR  $DC71
 967D  64 2A     STZ  $2A
 967F  64 2B     STZ  $2B
 9681  A1 02     LDA  ($02, X)
 9683  C9 2D     CMP  #$2D
 9685  D0 0A     BNE  $9691
 9687  C6 2B     DEC  $2B
 9689  F6 02     INC  $02, X
 968B  D0 02     BNE  $968F
 968D  F6 03     INC  $03, X
 968F  D6 00     DEC  $00, X
 9691  B5 02     LDA  $02, X
 9693  18        CLC  
 9694  75 00     ADC  $00, X
 9696  85 2C     STA  $2C
 9698  B5 03     LDA  $03, X
 969A  69 00     ADC  #$00
 969C  85 2D     STA  $2D
 969E  A5 2C     LDA  $2C
 96A0  D0 02     BNE  $96A4
 96A2  C6 2D     DEC  $2D
 96A4  C6 2C     DEC  $2C
 96A6  B2 2C     LDA  ($2C)
 96A8  C9 2E     CMP  #$2E
 96AA  D0 04     BNE  $96B0
 96AC  C6 2A     DEC  $2A
 96AE  D6 00     DEC  $00, X
 96B0  CA        DEX  
 96B1  CA        DEX  
 96B2  CA        DEX  
 96B3  CA        DEX  
 96B4  B5 04     LDA  $04, X
 96B6  95 00     STA  $00, X
 96B8  74 01     STZ  $01, X
 96BA  B5 06     LDA  $06, X
 96BC  95 02     STA  $02, X
 96BE  B5 07     LDA  $07, X
 96C0  95 03     STA  $03, X
 96C2  74 04     STZ  $04, X
 96C4  74 05     STZ  $05, X
 96C6  74 06     STZ  $06, X
 96C8  74 07     STZ  $07, X
 96CA  20 39 A2  JSR  $A239
 96CD  B5 00     LDA  $00, X
 96CF  F0 15     BEQ  $96E6
 96D1  A9 3E     LDA  #$3E
 96D3  20 E6 8D  JSR  $8DE6
 96D6  20 7F A4  JSR  $A47F
 96D9  A9 3C     LDA  #$3C
 96DB  20 E6 8D  JSR  $8DE6
 96DE  20 A0 A0  JSR  $A0A0
 96E1  A9 08     LDA  #$08
 96E3  4C 82 DC  JMP  $DC82
 96E6  E8        INX  
 96E7  E8        INX  
 96E8  E8        INX  
 96E9  E8        INX  
 96EA  A5 2A     LDA  $2A
 96EC  F0 0D     BEQ  $96FB
 96EE  A9 20     LDA  #$20
 96F0  04 20     TSB  $20
 96F2  A5 2B     LDA  $2B
 96F4  F0 12     BEQ  $9708
 96F6  20 31 8B  JSR  $8B31
 96F9  80 0D     BRA  $9708
 96FB  E8        INX  
 96FC  E8        INX  
 96FD  A9 20     LDA  #$20
 96FF  14 20     TRB  $20
 9701  A5 2B     LDA  $2B
 9703  F0 03     BEQ  $9708
 9705  20 13 96  JSR  $9613
 9708  60        RTS  
 9709  20 71 DC  JSR  $DC71
 970C  20 77 83  JSR  $8377
 970F  20 70 8F  JSR  $8F70
 9712  20 EC A2  JSR  $A2EC
 9715  20 23 A7  JSR  $A723
 9718  20 FF 99  JSR  $99FF
 971B  20 36 A5  JSR  $A536
 971E  20 D9 9A  JSR  $9AD9
 9721  20 D9 9A  JSR  $9AD9
 9724  20 14 9A  JSR  $9A14
 9727  20 36 A5  JSR  $A536
 972A  20 D9 9A  JSR  $9AD9
 972D  20 D9 9A  JSR  $9AD9
 9730  B5 00     LDA  $00, X
 9732  A8        TAY  
 9733  B9 83 D8  LDA  $D883, Y
 9736  95 00     STA  $00, X
 9738  74 01     STZ  $01, X
 973A  20 C7 91  JSR  $91C7
 973D  60        RTS  
 973E  20 71 DC  JSR  $DC71
 9741  A5 34     LDA  $34
 9743  95 00     STA  $00, X
 9745  95 02     STA  $02, X
 9747  A5 35     LDA  $35
 9749  95 01     STA  $01, X
 974B  95 03     STA  $03, X
 974D  20 23 98  JSR  $9823
 9750  38        SEC  
 9751  B5 00     LDA  $00, X
 9753  F5 02     SBC  $02, X
 9755  95 02     STA  $02, X
 9757  B5 01     LDA  $01, X
 9759  F5 03     SBC  $03, X
 975B  95 03     STA  $03, X
 975D  E8        INX  
 975E  E8        INX  
 975F  60        RTS  
 9760  20 71 DC  JSR  $DC71
 9763  20 09 97  JSR  $9709
 9766  B5 00     LDA  $00, X
 9768  15 01     ORA  $01, X
 976A  15 02     ORA  $02, X
 976C  15 03     ORA  $03, X
 976E  D0 F3     BNE  $9763
 9770  60        RTS  
 9771  A0 98     LDY  #$98
 9773  A9 15     LDA  #$15
 9775  20 0F DB  JSR  $DB0F
 9778  A0 8E     LDY  #$8E
 977A  A9 BE     LDA  #$BE
 977C  20 0F DB  JSR  $DB0F
 977F  20 F3 91  JSR  $91F3
 9782  A0 8D     LDY  #$8D
 9784  A9 1E     LDA  #$1E
 9786  20 0F DB  JSR  $DB0F
 9789  60        RTS  
 978A  CA        DEX  
 978B  CA        DEX  
 978C  A9 01     LDA  #$01
 978E  95 00     STA  $00, X
 9790  74 01     STZ  $01, X
 9792  60        RTS  
 9793  20 6C DC  JSR  $DC6C
 9796  B5 00     LDA  $00, X
 9798  D0 02     BNE  $979C
 979A  D6 01     DEC  $01, X
 979C  D6 00     DEC  $00, X
 979E  60        RTS  
 979F  20 6C DC  JSR  $DC6C
 97A2  F6 00     INC  $00, X
 97A4  D0 02     BNE  $97A8
 97A6  F6 01     INC  $01, X
 97A8  60        RTS  
 97A9  CA        DEX  
 97AA  CA        DEX  
 97AB  A9 FF     LDA  #$FF
 97AD  95 00     STA  $00, X
 97AF  95 01     STA  $01, X
 97B1  20 9D 9C  JSR  $9C9D
 97B4  60        RTS  
 97B5  20 71 DC  JSR  $DC71
 97B8  B5 00     LDA  $00, X
 97BA  15 02     ORA  $02, X
 97BC  95 02     STA  $02, X
 97BE  B5 01     LDA  $01, X
 97C0  15 03     ORA  $03, X
 97C2  95 03     STA  $03, X
 97C4  E8        INX  
 97C5  E8        INX  
 97C6  60        RTS  
 97C7  20 53 89  JSR  $8953
 97CA  20 24 91  JSR  $9124
 97CD  B5 00     LDA  $00, X
 97CF  F0 1E     BEQ  $97EF
 97D1  A8        TAY  
 97D2  E8        INX  
 97D3  E8        INX  
 97D4  B5 00     LDA  $00, X
 97D6  5A        PHY  
 97D7  20 F2 97  JSR  $97F2
 97DA  7A        PLY  
 97DB  88        DEY  
 97DC  D0 F4     BNE  $97D2
 97DE  20 A0 A0  JSR  $A0A0
 97E1  20 A0 A0  JSR  $A0A0
 97E4  20 19 91  JSR  $9119
 97E7  B5 00     LDA  $00, X
 97E9  20 F2 97  JSR  $97F2
 97EC  20 53 89  JSR  $8953
 97EF  E8        INX  
 97F0  E8        INX  
 97F1  60        RTS  
 97F2  C9 04     CMP  #$04
 97F4  90 09     BCC  $97FF
 97F6  CA        DEX  
 97F7  CA        DEX  
 97F8  95 00     STA  $00, X
 97FA  74 01     STZ  $01, X
 97FC  4C AA A4  JMP  $A4AA
 97FF  A8        TAY  
 9800  B9 06 98  LDA  $9806, Y
 9803  4C 98 DC  JMP  $DC98
 9806  03 06 07 08                                      |....            |
 980A  CA        DEX  
 980B  CA        DEX  
 980C  A9 10     LDA  #$10
 980E  95 00     STA  $00, X
 9810  A9 00     LDA  #$00
 9812  95 01     STA  $01, X
 9814  60        RTS  
 9815  20 71 DC  JSR  $DC71
 9818  CA        DEX  
 9819  CA        DEX  
 981A  B5 04     LDA  $04, X
 981C  95 00     STA  $00, X
 981E  B5 05     LDA  $05, X
 9820  95 01     STA  $01, X
 9822  60        RTS  
 9823  CA        DEX  
 9824  CA        DEX  
 9825  A5 00     LDA  $00
 9827  18        CLC  
 9828  69 FF     ADC  #$FF
 982A  95 00     STA  $00, X
 982C  A5 01     LDA  $01
 982E  69 00     ADC  #$00
 9830  95 01     STA  $01, X
 9832  60        RTS  
 9833  A9 1B     LDA  #$1B
 9835  20 E6 8D  JSR  $8DE6
 9838  A9 5B     LDA  #$5B
 983A  20 E6 8D  JSR  $8DE6
 983D  A9 32     LDA  #$32
 983F  20 E6 8D  JSR  $8DE6
 9842  A9 4A     LDA  #$4A
 9844  20 E6 8D  JSR  $8DE6
 9847  20 23 A7  JSR  $A723
 984A  20 23 A7  JSR  $A723
 984D  20 50 83  JSR  $8350
 9850  60        RTS  
 9851  CA        DEX  
 9852  CA        DEX  
 9853  A9 29     LDA  #$29
 9855  95 00     STA  $00, X
 9857  74 01     STZ  $01, X
 9859  20 BC 98  JSR  $98BC
 985C  E8        INX  
 985D  E8        INX  
 985E  E8        INX  
 985F  E8        INX  
 9860  60        RTS  
 9861  A5 0A     LDA  $0A
 9863  38        SEC  
 9864  E5 0C     SBC  $0C
 9866  85 24     STA  $24
 9868  A5 0B     LDA  $0B
 986A  E5 0D     SBC  $0D
 986C  85 25     STA  $25
 986E  A5 24     LDA  $24
 9870  05 25     ORA  $25
 9872  F0 28     BEQ  $989C
 9874  A5 08     LDA  $08
 9876  18        CLC  
 9877  65 0C     ADC  $0C
 9879  85 26     STA  $26
 987B  A5 09     LDA  $09
 987D  65 0D     ADC  $0D
 987F  85 27     STA  $27
 9881  B2 26     LDA  ($26)
 9883  20 5F DC  JSR  $DC5F
 9886  90 1F     BCC  $98A7
 9888  E6 26     INC  $26
 988A  D0 02     BNE  $988E
 988C  E6 27     INC  $27
 988E  A5 24     LDA  $24
 9890  D0 02     BNE  $9894
 9892  C6 25     DEC  $25
 9894  C6 24     DEC  $24
 9896  A5 24     LDA  $24
 9898  05 25     ORA  $25
 989A  D0 E5     BNE  $9881
 989C  CA        DEX  
 989D  CA        DEX  
 989E  CA        DEX  
 989F  CA        DEX  
 98A0  74 00     STZ  $00, X
 98A2  74 01     STZ  $01, X
 98A4  4C 53 99  JMP  $9953
 98A7  A5 26     LDA  $26
 98A9  38        SEC  
 98AA  E5 08     SBC  $08
 98AC  85 0C     STA  $0C
 98AE  A5 27     LDA  $27
 98B0  E5 09     SBC  $09
 98B2  85 0D     STA  $0D
 98B4  CA        DEX  
 98B5  CA        DEX  
 98B6  A9 20     LDA  #$20
 98B8  95 00     STA  $00, X
 98BA  74 01     STZ  $01, X
 98BC  20 6C DC  JSR  $DC6C
 98BF  A5 0A     LDA  $0A
 98C1  05 0B     ORA  $0B
 98C3  F0 0C     BEQ  $98D1
 98C5  A5 0D     LDA  $0D
 98C7  C5 0B     CMP  $0B
 98C9  90 0E     BCC  $98D9
 98CB  A5 0C     LDA  $0C
 98CD  C5 0A     CMP  $0A
 98CF  90 08     BCC  $98D9
 98D1  CA        DEX  
 98D2  CA        DEX  
 98D3  74 00     STZ  $00, X
 98D5  74 01     STZ  $01, X
 98D7  80 7A     BRA  $9953
 98D9  B5 00     LDA  $00, X
 98DB  85 2C     STA  $2C
 98DD  CA        DEX  
 98DE  CA        DEX  
 98DF  A5 08     LDA  $08
 98E1  18        CLC  
 98E2  65 0C     ADC  $0C
 98E4  85 24     STA  $24
 98E6  85 26     STA  $26
 98E8  95 02     STA  $02, X
 98EA  A5 09     LDA  $09
 98EC  65 0D     ADC  $0D
 98EE  85 25     STA  $25
 98F0  85 27     STA  $27
 98F2  95 03     STA  $03, X
 98F4  A5 08     LDA  $08
 98F6  18        CLC  
 98F7  65 0A     ADC  $0A
 98F9  85 28     STA  $28
 98FB  A5 09     LDA  $09
 98FD  65 0B     ADC  $0B
 98FF  85 29     STA  $29
 9901  64 2D     STZ  $2D
 9903  A5 26     LDA  $26
 9905  C5 28     CMP  $28
 9907  D0 06     BNE  $990F
 9909  A5 27     LDA  $27
 990B  C5 29     CMP  $29
 990D  F0 1D     BEQ  $992C
 990F  B2 26     LDA  ($26)
 9911  A4 2C     LDY  $2C
 9913  C0 20     CPY  #$20
 9915  D0 07     BNE  $991E
 9917  20 5F DC  JSR  $DC5F
 991A  90 02     BCC  $991E
 991C  80 0C     BRA  $992A
 991E  C5 2C     CMP  $2C
 9920  F0 08     BEQ  $992A
 9922  E6 26     INC  $26
 9924  D0 DD     BNE  $9903
 9926  E6 27     INC  $27
 9928  80 D9     BRA  $9903
 992A  E6 2D     INC  $2D
 992C  A5 26     LDA  $26
 992E  38        SEC  
 992F  E5 24     SBC  $24
 9931  95 00     STA  $00, X
 9933  A5 27     LDA  $27
 9935  E5 25     SBC  $25
 9937  95 01     STA  $01, X
 9939  A5 26     LDA  $26
 993B  38        SEC  
 993C  E5 08     SBC  $08
 993E  85 0C     STA  $0C
 9940  A5 27     LDA  $27
 9942  E5 09     SBC  $09
 9944  85 0D     STA  $0D
 9946  A5 0C     LDA  $0C
 9948  18        CLC  
 9949  65 2D     ADC  $2D
 994B  85 0C     STA  $0C
 994D  A5 0D     LDA  $0D
 994F  69 00     ADC  #$00
 9951  85 0D     STA  $0D
 9953  60        RTS  
 9954  16 00     ASL  $00, X
 9956  8A        TXA  
 9957  75 00     ADC  $00, X
 9959  A8        TAY  
 995A  B9 02 00  LDA  $0002, Y
 995D  95 00     STA  $00, X
 995F  B9 03 00  LDA  $0003, Y
 9962  95 01     STA  $01, X
 9964  60        RTS  
 9965  20 71 DC  JSR  $DC71
 9968  18        CLC  
 9969  B5 00     LDA  $00, X
 996B  75 02     ADC  $02, X
 996D  95 02     STA  $02, X
 996F  B5 01     LDA  $01, X
 9971  75 03     ADC  $03, X
 9973  95 03     STA  $03, X
 9975  E8        INX  
 9976  E8        INX  
 9977  60        RTS  
 9978  20 71 DC  JSR  $DC71
 997B  B5 00     LDA  $00, X
 997D  85 24     STA  $24
 997F  B5 01     LDA  $01, X
 9981  85 25     STA  $25
 9983  A0 00     LDY  #$00
 9985  B1 24     LDA  ($24), Y
 9987  18        CLC  
 9988  75 02     ADC  $02, X
 998A  91 24     STA  ($24), Y
 998C  C8        INY  
 998D  B1 24     LDA  ($24), Y
 998F  75 03     ADC  $03, X
 9991  91 24     STA  ($24), Y
 9993  E8        INX  
 9994  E8        INX  
 9995  E8        INX  
 9996  E8        INX  
 9997  60        RTS  
 9998  20 61 98  JSR  $9861
 999B  B5 00     LDA  $00, X
 999D  15 01     ORA  $01, X
 999F  D0 05     BNE  $99A6
 99A1  A9 05     LDA  #$05
 99A3  4C 82 DC  JMP  $DC82
 99A6  20 CB 8F  JSR  $8FCB
 99A9  D0 05     BNE  $99B0
 99AB  A9 05     LDA  #$05
 99AD  4C 82 DC  JMP  $DC82
 99B0  B5 00     LDA  $00, X
 99B2  85 24     STA  $24
 99B4  B5 01     LDA  $01, X
 99B6  85 25     STA  $25
 99B8  20 D1 95  JSR  $95D1
 99BB  E6 24     INC  $24
 99BD  D0 02     BNE  $99C1
 99BF  E6 25     INC  $25
 99C1  B2 24     LDA  ($24)
 99C3  29 04     AND  #$04
 99C5  F0 05     BEQ  $99CC
 99C7  20 DD 87  JSR  $87DD
 99CA  80 0A     BRA  $99D6
 99CC  20 7A 93  JSR  $937A
 99CF  A0 87     LDY  #$87
 99D1  A9 DD     LDA  #$DD
 99D3  20 0F DB  JSR  $DB0F
 99D6  60        RTS  
 99D7  20 24 91  JSR  $9124
 99DA  20 32 96  JSR  $9632
 99DD  20 93 97  JSR  $9793
 99E0  20 9D 9C  JSR  $9C9D
 99E3  60        RTS  
 99E4  20 70 8F  JSR  $8F70
 99E7  20 26 8C  JSR  $8C26
 99EA  60        RTS  
 99EB  20 6C DC  JSR  $DC6C
 99EE  B5 00     LDA  $00, X
 99F0  15 01     ORA  $01, X
 99F2  F0 0A     BEQ  $99FE
 99F4  CA        DEX  
 99F5  CA        DEX  
 99F6  B5 02     LDA  $02, X
 99F8  95 00     STA  $00, X
 99FA  B5 03     LDA  $03, X
 99FC  95 01     STA  $01, X
 99FE  60        RTS  
 99FF  7A        PLY  
 9A00  84 24     STY  $24
 9A02  7A        PLY  
 9A03  CA        DEX  
 9A04  CA        DEX  
 9A05  68        PLA  
 9A06  95 00     STA  $00, X
 9A08  68        PLA  
 9A09  95 01     STA  $01, X
 9A0B  48        PHA  
 9A0C  B5 00     LDA  $00, X
 9A0E  48        PHA  
 9A0F  5A        PHY  
 9A10  A4 24     LDY  $24
 9A12  5A        PHY  
 9A13  60        RTS  
 9A14  68        PLA  
 9A15  85 2C     STA  $2C
 9A17  7A        PLY  
 9A18  CA        DEX  
 9A19  CA        DEX  
 9A1A  68        PLA  
 9A1B  95 00     STA  $00, X
 9A1D  68        PLA  
 9A1E  95 01     STA  $01, X
 9A20  5A        PHY  
 9A21  A5 2C     LDA  $2C
 9A23  48        PHA  
 9A24  60        RTS  
 9A25  68        PLA  
 9A26  85 24     STA  $24
 9A28  68        PLA  
 9A29  85 25     STA  $25
 9A2B  A0 00     LDY  #$00
 9A2D  68        PLA  
 9A2E  99 06 00  STA  $0006, Y
 9A31  C8        INY  
 9A32  C0 08     CPY  #$08
 9A34  D0 F7     BNE  $9A2D
 9A36  A5 25     LDA  $25
 9A38  48        PHA  
 9A39  A5 24     LDA  $24
 9A3B  48        PHA  
 9A3C  60        RTS  
 9A3D  A0 00     LDY  #$00
 9A3F  A9 20     LDA  #$20
 9A41  91 00     STA  ($00), Y
 9A43  C8        INY  
 9A44  24 20     BIT  $20
 9A46  70 0C     BVS  $9A54
 9A48  A5 04     LDA  $04
 9A4A  91 00     STA  ($00), Y
 9A4C  C8        INY  
 9A4D  A5 05     LDA  $05
 9A4F  91 00     STA  ($00), Y
 9A51  C8        INY  
 9A52  80 1B     BRA  $9A6F
 9A54  A5 04     LDA  $04
 9A56  18        CLC  
 9A57  69 04     ADC  #$04
 9A59  85 24     STA  $24
 9A5B  A5 05     LDA  $05
 9A5D  69 00     ADC  #$00
 9A5F  85 25     STA  $25
 9A61  B2 24     LDA  ($24)
 9A63  91 00     STA  ($00), Y
 9A65  5A        PHY  
 9A66  A0 01     LDY  #$01
 9A68  B1 24     LDA  ($24), Y
 9A6A  7A        PLY  
 9A6B  C8        INY  
 9A6C  91 00     STA  ($00), Y
 9A6E  C8        INY  
 9A6F  98        TYA  
 9A70  18        CLC  
 9A71  65 00     ADC  $00
 9A73  85 00     STA  $00
 9A75  90 02     BCC  $9A79
 9A77  E6 01     INC  $01
 9A79  60        RTS  
 9A7A  A5 06     LDA  $06
 9A7C  D0 2D     BNE  $9AAB
 9A7E  CA        DEX  
 9A7F  CA        DEX  
 9A80  CA        DEX  
 9A81  CA        DEX  
 9A82  A5 08     LDA  $08
 9A84  95 02     STA  $02, X
 9A86  A5 09     LDA  $09
 9A88  95 03     STA  $03, X
 9A8A  64 0A     STZ  $0A
 9A8C  64 0B     STZ  $0B
 9A8E  A9 FF     LDA  #$FF
 9A90  95 00     STA  $00, X
 9A92  74 01     STZ  $01, X
 9A94  20 4E 81  JSR  $814E
 9A97  B5 00     LDA  $00, X
 9A99  85 0A     STA  $0A
 9A9B  B5 01     LDA  $01, X
 9A9D  85 0B     STA  $0B
 9A9F  64 0C     STZ  $0C
 9AA1  64 0D     STZ  $0D
 9AA3  A9 FF     LDA  #$FF
 9AA5  95 00     STA  $00, X
 9AA7  95 01     STA  $01, X
 9AA9  80 10     BRA  $9ABB
 9AAB  1A        INC  
 9AAC  D0 08     BNE  $9AB6
 9AAE  CA        DEX  
 9AAF  CA        DEX  
 9AB0  74 00     STZ  $00, X
 9AB2  74 01     STZ  $01, X
 9AB4  80 05     BRA  $9ABB
 9AB6  A9 01     LDA  #$01
 9AB8  4C 82 DC  JMP  $DC82
 9ABB  60        RTS  
 9ABC  20 89 82  JSR  $8289
 9ABF  20 62 91  JSR  $9162
 9AC2  20 2A A1  JSR  $A12A
 9AC5  20 09 A1  JSR  $A109
 9AC8  60        RTS  
 9AC9  A9 FF     LDA  #$FF
 9ACB  85 16     STA  $16
 9ACD  85 17     STA  $17
 9ACF  60        RTS  
 9AD0  CA        DEX  
 9AD1  CA        DEX  
 9AD2  A9 03     LDA  #$03
 9AD4  95 00     STA  $00, X
 9AD6  74 01     STZ  $01, X
 9AD8  60        RTS  
 9AD9  20 76 DC  JSR  $DC76
 9ADC  B4 05     LDY  $05, X
 9ADE  B5 03     LDA  $03, X
 9AE0  95 05     STA  $05, X
 9AE2  B5 01     LDA  $01, X
 9AE4  95 03     STA  $03, X
 9AE6  94 01     STY  $01, X
 9AE8  B4 04     LDY  $04, X
 9AEA  B5 02     LDA  $02, X
 9AEC  95 04     STA  $04, X
 9AEE  B5 00     LDA  $00, X
 9AF0  95 02     STA  $02, X
 9AF2  94 00     STY  $00, X
 9AF4  60        RTS  
 9AF5  20 71 DC  JSR  $DC71
 9AF8  B5 00     LDA  $00, X
 9AFA  29 0F     AND  #$0F
 9AFC  F0 08     BEQ  $9B06
 9AFE  A8        TAY  
 9AFF  56 03     LSR  $03, X
 9B01  76 02     ROR  $02, X
 9B03  88        DEY  
 9B04  D0 F9     BNE  $9AFF
 9B06  E8        INX  
 9B07  E8        INX  
 9B08  60        RTS  
 9B09  A9 FF     LDA  #$FF
 9B0B  85 26     STA  $26
 9B0D  64 27     STZ  $27
 9B0F  20 D5 9C  JSR  $9CD5
 9B12  60        RTS  
 9B13  C9 41     CMP  #$41
 9B15  90 07     BCC  $9B1E
 9B17  29 DF     AND  #$DF
 9B19  38        SEC  
 9B1A  E9 37     SBC  #$37
 9B1C  80 03     BRA  $9B21
 9B1E  38        SEC  
 9B1F  E9 30     SBC  #$30
 9B21  60        RTS  
 9B22  20 76 DC  JSR  $DC76
 9B25  A5 1E     LDA  $1E
 9B27  18        CLC  
 9B28  69 06     ADC  #$06
 9B2A  85 26     STA  $26
 9B2C  A5 1F     LDA  $1F
 9B2E  69 00     ADC  #$00
 9B30  85 27     STA  $27
 9B32  B5 00     LDA  $00, X
 9B34  0A        ASL  
 9B35  65 26     ADC  $26
 9B37  85 26     STA  $26
 9B39  90 02     BCC  $9B3D
 9B3B  E6 27     INC  $27
 9B3D  E8        INX  
 9B3E  E8        INX  
 9B3F  B5 00     LDA  $00, X
 9B41  15 01     ORA  $01, X
 9B43  D0 03     BNE  $9B48
 9B45  4C 00 9C  JMP  $9C00
 9B48  A5 26     LDA  $26
 9B4A  05 27     ORA  $27
 9B4C  D0 03     BNE  $9B51
 9B4E  4C 00 9C  JMP  $9C00
 9B51  B2 26     LDA  ($26)
 9B53  85 24     STA  $24
 9B55  E6 26     INC  $26
 9B57  D0 02     BNE  $9B5B
 9B59  E6 27     INC  $27
 9B5B  B2 26     LDA  ($26)
 9B5D  85 25     STA  $25
 9B5F  B5 02     LDA  $02, X
 9B61  85 26     STA  $26
 9B63  B5 03     LDA  $03, X
 9B65  85 27     STA  $27
 9B67  B2 24     LDA  ($24)
 9B69  D5 00     CMP  $00, X
 9B6B  D0 7B     BNE  $9BE8
 9B6D  B2 26     LDA  ($26)
 9B6F  C9 5B     CMP  #$5B
 9B71  B0 07     BCS  $9B7A
 9B73  C9 41     CMP  #$41
 9B75  90 03     BCC  $9B7A
 9B77  18        CLC  
 9B78  69 20     ADC  #$20
 9B7A  A0 08     LDY  #$08
 9B7C  D1 24     CMP  ($24), Y
 9B7E  D0 68     BNE  $9BE8
 9B80  B5 00     LDA  $00, X
 9B82  3A        DEC  
 9B83  F0 2C     BEQ  $9BB1
 9B85  A5 24     LDA  $24
 9B87  48        PHA  
 9B88  18        CLC  
 9B89  69 08     ADC  #$08
 9B8B  85 24     STA  $24
 9B8D  A5 25     LDA  $25
 9B8F  48        PHA  
 9B90  69 00     ADC  #$00
 9B92  85 25     STA  $25
 9B94  B4 00     LDY  $00, X
 9B96  88        DEY  
 9B97  B1 26     LDA  ($26), Y
 9B99  C9 5B     CMP  #$5B
 9B9B  B0 07     BCS  $9BA4
 9B9D  C9 41     CMP  #$41
 9B9F  90 03     BCC  $9BA4
 9BA1  18        CLC  
 9BA2  69 20     ADC  #$20
 9BA4  D1 24     CMP  ($24), Y
 9BA6  D0 3A     BNE  $9BE2
 9BA8  88        DEY  
 9BA9  D0 EC     BNE  $9B97
 9BAB  68        PLA  
 9BAC  85 25     STA  $25
 9BAE  68        PLA  
 9BAF  85 24     STA  $24
 9BB1  E8        INX  
 9BB2  E8        INX  
 9BB3  A5 24     LDA  $24
 9BB5  95 00     STA  $00, X
 9BB7  A5 25     LDA  $25
 9BB9  95 01     STA  $01, X
 9BBB  20 9F 8D  JSR  $8D9F
 9BBE  20 D1 95  JSR  $95D1
 9BC1  20 2A A1  JSR  $A12A
 9BC4  A0 00     LDY  #$00
 9BC6  F6 00     INC  $00, X
 9BC8  D0 02     BNE  $9BCC
 9BCA  F6 01     INC  $01, X
 9BCC  A1 00     LDA  ($00, X)
 9BCE  29 04     AND  #$04
 9BD0  D0 08     BNE  $9BDA
 9BD2  A9 FF     LDA  #$FF
 9BD4  95 00     STA  $00, X
 9BD6  95 01     STA  $01, X
 9BD8  80 28     BRA  $9C02
 9BDA  A9 01     LDA  #$01
 9BDC  95 00     STA  $00, X
 9BDE  74 01     STZ  $01, X
 9BE0  80 20     BRA  $9C02
 9BE2  68        PLA  
 9BE3  85 25     STA  $25
 9BE5  68        PLA  
 9BE6  85 24     STA  $24
 9BE8  A0 02     LDY  #$02
 9BEA  B1 24     LDA  ($24), Y
 9BEC  48        PHA  
 9BED  C8        INY  
 9BEE  B1 24     LDA  ($24), Y
 9BF0  85 25     STA  $25
 9BF2  68        PLA  
 9BF3  85 24     STA  $24
 9BF5  05 25     ORA  $25
 9BF7  F0 03     BEQ  $9BFC
 9BF9  4C 67 9B  JMP  $9B67
 9BFC  74 02     STZ  $02, X
 9BFE  74 03     STZ  $03, X
 9C00  E8        INX  
 9C01  E8        INX  
 9C02  60        RTS  
 9C03  20 61 98  JSR  $9861
 9C06  20 CB 8F  JSR  $8FCB
 9C09  B5 00     LDA  $00, X
 9C0B  15 01     ORA  $01, X
 9C0D  D0 05     BNE  $9C14
 9C0F  A9 05     LDA  #$05
 9C11  4C 82 DC  JMP  $DC82
 9C14  20 53 89  JSR  $8953
 9C17  A5 18     LDA  $18
 9C19  48        PHA  
 9C1A  20 6D 91  JSR  $916D
 9C1D  A9 0A     LDA  #$0A
 9C1F  20 98 DC  JSR  $DC98
 9C22  20 9F 8D  JSR  $8D9F
 9C25  20 AA A4  JSR  $A4AA
 9C28  20 A0 A0  JSR  $A0A0
 9C2B  20 9F 8D  JSR  $8D9F
 9C2E  20 D1 95  JSR  $95D1
 9C31  A9 0B     LDA  #$0B
 9C33  20 98 DC  JSR  $DC98
 9C36  20 9F 8D  JSR  $8D9F
 9C39  20 AA A4  JSR  $A4AA
 9C3C  20 53 89  JSR  $8953
 9C3F  A9 09     LDA  #$09
 9C41  20 98 DC  JSR  $DC98
 9C44  20 15 98  JSR  $9815
 9C47  20 9F 97  JSR  $979F
 9C4A  20 70 8F  JSR  $8F70
 9C4D  B5 00     LDA  $00, X
 9C4F  A0 06     LDY  #$06
 9C51  48        PHA  
 9C52  29 01     AND  #$01
 9C54  18        CLC  
 9C55  69 30     ADC  #$30
 9C57  20 E6 8D  JSR  $8DE6
 9C5A  20 A0 A0  JSR  $A0A0
 9C5D  68        PLA  
 9C5E  6A        ROR  
 9C5F  88        DEY  
 9C60  D0 EF     BNE  $9C51
 9C62  20 53 89  JSR  $8953
 9C65  E8        INX  
 9C66  E8        INX  
 9C67  A9 0C     LDA  #$0C
 9C69  20 98 DC  JSR  $DC98
 9C6C  20 2A A1  JSR  $A12A
 9C6F  20 F0 A6  JSR  $A6F0
 9C72  20 9F 8D  JSR  $8D9F
 9C75  20 95 8A  JSR  $8A95
 9C78  20 AA A4  JSR  $A4AA
 9C7B  20 6D 91  JSR  $916D
 9C7E  20 53 89  JSR  $8953
 9C81  20 34 A3  JSR  $A334
 9C84  20 24 8D  JSR  $8D24
 9C87  20 53 89  JSR  $8953
 9C8A  20 2A 8B  JSR  $8B2A
 9C8D  68        PLA  
 9C8E  85 18     STA  $18
 9C90  60        RTS  
 9C91  20 6C DC  JSR  $DC6C
 9C94  A0 04     LDY  #$04
 9C96  B5 00     LDA  $00, X
 9C98  91 1E     STA  ($1E), Y
 9C9A  E8        INX  
 9C9B  E8        INX  
 9C9C  60        RTS  
 9C9D  A9 FF     LDA  #$FF
 9C9F  D5 01     CMP  $01, X
 9CA1  D0 12     BNE  $9CB5
 9CA3  D5 00     CMP  $00, X
 9CA5  D0 0E     BNE  $9CB5
 9CA7  CA        DEX  
 9CA8  CA        DEX  
 9CA9  74 03     STZ  $03, X
 9CAB  A9 03     LDA  #$03
 9CAD  95 02     STA  $02, X
 9CAF  74 01     STZ  $01, X
 9CB1  A9 01     LDA  #$01
 9CB3  95 00     STA  $00, X
 9CB5  A0 1E     LDY  #$1E
 9CB7  B5 00     LDA  $00, X
 9CB9  91 1E     STA  ($1E), Y
 9CBB  85 24     STA  $24
 9CBD  E8        INX  
 9CBE  E8        INX  
 9CBF  A5 24     LDA  $24
 9CC1  F0 0D     BEQ  $9CD0
 9CC3  A0 1F     LDY  #$1F
 9CC5  B5 00     LDA  $00, X
 9CC7  91 1E     STA  ($1E), Y
 9CC9  C8        INY  
 9CCA  E8        INX  
 9CCB  E8        INX  
 9CCC  C6 24     DEC  $24
 9CCE  D0 F5     BNE  $9CC5
 9CD0  60        RTS  
 9CD1  64 26     STZ  $26
 9CD3  64 27     STZ  $27
 9CD5  CA        DEX  
 9CD6  CA        DEX  
 9CD7  CA        DEX  
 9CD8  CA        DEX  
 9CD9  A9 4C     LDA  #$4C
 9CDB  20 1F DB  JSR  $DB1F
 9CDE  20 1F DB  JSR  $DB1F
 9CE1  20 1F DB  JSR  $DB1F
 9CE4  A5 00     LDA  $00
 9CE6  95 02     STA  $02, X
 9CE8  A5 01     LDA  $01
 9CEA  95 03     STA  $03, X
 9CEC  A5 0D     LDA  $0D
 9CEE  C5 0B     CMP  $0B
 9CF0  90 2A     BCC  $9D1C
 9CF2  A5 0C     LDA  $0C
 9CF4  C5 0A     CMP  $0A
 9CF6  90 24     BCC  $9D1C
 9CF8  A5 26     LDA  $26
 9CFA  48        PHA  
 9CFB  A5 27     LDA  $27
 9CFD  48        PHA  
 9CFE  A5 28     LDA  $28
 9D00  48        PHA  
 9D01  20 7A 9A  JSR  $9A7A
 9D04  68        PLA  
 9D05  85 28     STA  $28
 9D07  68        PLA  
 9D08  85 27     STA  $27
 9D0A  68        PLA  
 9D0B  85 26     STA  $26
 9D0D  B5 00     LDA  $00, X
 9D0F  15 01     ORA  $01, X
 9D11  D0 05     BNE  $9D18
 9D13  A9 06     LDA  #$06
 9D15  4C 82 DC  JMP  $DC82
 9D18  E8        INX  
 9D19  E8        INX  
 9D1A  80 D0     BRA  $9CEC
 9D1C  A5 08     LDA  $08
 9D1E  18        CLC  
 9D1F  65 0C     ADC  $0C
 9D21  85 24     STA  $24
 9D23  A5 09     LDA  $09
 9D25  65 0D     ADC  $0D
 9D27  85 25     STA  $25
 9D29  B2 24     LDA  ($24)
 9D2B  24 26     BIT  $26
 9D2D  30 03     BMI  $9D32
 9D2F  4C EA 9D  JMP  $9DEA
 9D32  24 27     BIT  $27
 9D34  30 03     BMI  $9D39
 9D36  4C E0 9D  JMP  $9DE0
 9D39  70 22     BVS  $9D5D
 9D3B  A9 01     LDA  #$01
 9D3D  24 27     BIT  $27
 9D3F  D0 10     BNE  $9D51
 9D41  E6 27     INC  $27
 9D43  B2 24     LDA  ($24)
 9D45  20 13 9B  JSR  $9B13
 9D48  0A        ASL  
 9D49  0A        ASL  
 9D4A  0A        ASL  
 9D4B  0A        ASL  
 9D4C  85 28     STA  $28
 9D4E  4C F1 9D  JMP  $9DF1
 9D51  64 27     STZ  $27
 9D53  B2 24     LDA  ($24)
 9D55  20 13 9B  JSR  $9B13
 9D58  05 28     ORA  $28
 9D5A  4C EE 9D  JMP  $9DEE
 9D5D  64 27     STZ  $27
 9D5F  C9 61     CMP  #$61
 9D61  D0 05     BNE  $9D68
 9D63  A9 07     LDA  #$07
 9D65  4C EE 9D  JMP  $9DEE
 9D68  C9 62     CMP  #$62
 9D6A  D0 05     BNE  $9D71
 9D6C  A9 08     LDA  #$08
 9D6E  4C EE 9D  JMP  $9DEE
 9D71  C9 65     CMP  #$65
 9D73  D0 04     BNE  $9D79
 9D75  A9 1B     LDA  #$1B
 9D77  80 75     BRA  $9DEE
 9D79  C9 66     CMP  #$66
 9D7B  D0 04     BNE  $9D81
 9D7D  A9 0C     LDA  #$0C
 9D7F  80 6D     BRA  $9DEE
 9D81  C9 6C     CMP  #$6C
 9D83  D0 04     BNE  $9D89
 9D85  A9 0A     LDA  #$0A
 9D87  80 65     BRA  $9DEE
 9D89  C9 6D     CMP  #$6D
 9D8B  D0 09     BNE  $9D96
 9D8D  A9 0D     LDA  #$0D
 9D8F  20 1F DB  JSR  $DB1F
 9D92  A9 0A     LDA  #$0A
 9D94  80 58     BRA  $9DEE
 9D96  C9 6E     CMP  #$6E
 9D98  D0 04     BNE  $9D9E
 9D9A  A9 0A     LDA  #$0A
 9D9C  80 50     BRA  $9DEE
 9D9E  C9 71     CMP  #$71
 9DA0  D0 04     BNE  $9DA6
 9DA2  A9 22     LDA  #$22
 9DA4  80 48     BRA  $9DEE
 9DA6  C9 72     CMP  #$72
 9DA8  D0 04     BNE  $9DAE
 9DAA  A9 0D     LDA  #$0D
 9DAC  80 40     BRA  $9DEE
 9DAE  C9 74     CMP  #$74
 9DB0  D0 04     BNE  $9DB6
 9DB2  A9 09     LDA  #$09
 9DB4  80 38     BRA  $9DEE
 9DB6  C9 76     CMP  #$76
 9DB8  D0 04     BNE  $9DBE
 9DBA  A9 0B     LDA  #$0B
 9DBC  80 30     BRA  $9DEE
 9DBE  C9 7A     CMP  #$7A
 9DC0  D0 04     BNE  $9DC6
 9DC2  A9 00     LDA  #$00
 9DC4  80 28     BRA  $9DEE
 9DC6  C9 22     CMP  #$22
 9DC8  D0 04     BNE  $9DCE
 9DCA  A9 22     LDA  #$22
 9DCC  80 20     BRA  $9DEE
 9DCE  C9 78     CMP  #$78
 9DD0  D0 06     BNE  $9DD8
 9DD2  A9 BE     LDA  #$BE
 9DD4  85 27     STA  $27
 9DD6  80 19     BRA  $9DF1
 9DD8  C9 5C     CMP  #$5C
 9DDA  D0 04     BNE  $9DE0
 9DDC  A9 5C     LDA  #$5C
 9DDE  80 0E     BRA  $9DEE
 9DE0  C9 5C     CMP  #$5C
 9DE2  D0 06     BNE  $9DEA
 9DE4  A9 FF     LDA  #$FF
 9DE6  85 27     STA  $27
 9DE8  80 07     BRA  $9DF1
 9DEA  C9 22     CMP  #$22
 9DEC  F0 0C     BEQ  $9DFA
 9DEE  20 1F DB  JSR  $DB1F
 9DF1  E6 0C     INC  $0C
 9DF3  D0 02     BNE  $9DF7
 9DF5  E6 0D     INC  $0D
 9DF7  4C EC 9C  JMP  $9CEC
 9DFA  E6 0C     INC  $0C
 9DFC  D0 02     BNE  $9E00
 9DFE  E6 0D     INC  $0D
 9E00  A5 00     LDA  $00
 9E02  38        SEC  
 9E03  F5 02     SBC  $02, X
 9E05  95 00     STA  $00, X
 9E07  A5 01     LDA  $01
 9E09  F5 03     SBC  $03, X
 9E0B  95 01     STA  $01, X
 9E0D  B5 02     LDA  $02, X
 9E0F  38        SEC  
 9E10  E9 02     SBC  #$02
 9E12  85 24     STA  $24
 9E14  B5 03     LDA  $03, X
 9E16  E9 00     SBC  #$00
 9E18  85 25     STA  $25
 9E1A  A5 00     LDA  $00
 9E1C  92 24     STA  ($24)
 9E1E  A0 01     LDY  #$01
 9E20  A5 01     LDA  $01
 9E22  91 24     STA  ($24), Y
 9E24  A5 16     LDA  $16
 9E26  05 17     ORA  $17
 9E28  F0 03     BEQ  $9E2D
 9E2A  20 11 A0  JSR  $A011
 9E2D  60        RTS  
 9E2E  20 6C DC  JSR  $DC6C
 9E31  CA        DEX  
 9E32  CA        DEX  
 9E33  74 00     STZ  $00, X
 9E35  74 01     STZ  $01, X
 9E37  B5 03     LDA  $03, X
 9E39  10 04     BPL  $9E3F
 9E3B  D6 00     DEC  $00, X
 9E3D  D6 01     DEC  $01, X
 9E3F  60        RTS  
 9E40  A0 2C     LDY  #$2C
 9E42  B1 1E     LDA  ($1E), Y
 9E44  C9 03     CMP  #$03
 9E46  D0 12     BNE  $9E5A
 9E48  20 A3 83  JSR  $83A3
 9E4B  20 95 85  JSR  $8595
 9E4E  20 70 8F  JSR  $8F70
 9E51  20 50 85  JSR  $8550
 9E54  A9 01     LDA  #$01
 9E56  A0 2C     LDY  #$2C
 9E58  91 1E     STA  ($1E), Y
 9E5A  60        RTS  
 9E5B  CA        DEX  
 9E5C  CA        DEX  
 9E5D  18        CLC  
 9E5E  A5 1E     LDA  $1E
 9E60  69 02     ADC  #$02
 9E62  95 00     STA  $00, X
 9E64  A5 1F     LDA  $1F
 9E66  69 00     ADC  #$00
 9E68  95 01     STA  $01, X
 9E6A  60        RTS  
 9E6B  20 7B DC  JSR  $DC7B
 9E6E  B5 00     LDA  $00, X
 9E70  15 01     ORA  $01, X
 9E72  D0 0B     BNE  $9E7F
 9E74  E8        INX  
 9E75  E8        INX  
 9E76  A9 FF     LDA  #$FF
 9E78  95 00     STA  $00, X
 9E7A  95 01     STA  $01, X
 9E7C  4C 09 9F  JMP  $9F09
 9E7F  20 23 A7  JSR  $A723
 9E82  18        CLC  
 9E83  B5 00     LDA  $00, X
 9E85  75 02     ADC  $02, X
 9E87  85 24     STA  $24
 9E89  B5 01     LDA  $01, X
 9E8B  75 03     ADC  $03, X
 9E8D  D5 07     CMP  $07, X
 9E8F  90 12     BCC  $9EA3
 9E91  D0 06     BNE  $9E99
 9E93  B5 06     LDA  $06, X
 9E95  C5 24     CMP  $24
 9E97  B0 0A     BCS  $9EA3
 9E99  E8        INX  
 9E9A  E8        INX  
 9E9B  E8        INX  
 9E9C  E8        INX  
 9E9D  74 00     STZ  $00, X
 9E9F  74 01     STZ  $01, X
 9EA1  80 66     BRA  $9F09
 9EA3  18        CLC  
 9EA4  B5 08     LDA  $08, X
 9EA6  75 00     ADC  $00, X
 9EA8  85 24     STA  $24
 9EAA  B5 09     LDA  $09, X
 9EAC  75 01     ADC  $01, X
 9EAE  85 25     STA  $25
 9EB0  B5 04     LDA  $04, X
 9EB2  85 26     STA  $26
 9EB4  B5 05     LDA  $05, X
 9EB6  85 27     STA  $27
 9EB8  B5 02     LDA  $02, X
 9EBA  85 28     STA  $28
 9EBC  B5 03     LDA  $03, X
 9EBE  85 29     STA  $29
 9EC0  B2 24     LDA  ($24)
 9EC2  D2 26     CMP  ($26)
 9EC4  F0 05     BEQ  $9ECB
 9EC6  20 9F 97  JSR  $979F
 9EC9  80 B7     BRA  $9E82
 9ECB  E6 24     INC  $24
 9ECD  D0 02     BNE  $9ED1
 9ECF  E6 25     INC  $25
 9ED1  E6 26     INC  $26
 9ED3  D0 02     BNE  $9ED7
 9ED5  E6 27     INC  $27
 9ED7  A5 28     LDA  $28
 9ED9  D0 02     BNE  $9EDD
 9EDB  C6 29     DEC  $29
 9EDD  C6 28     DEC  $28
 9EDF  A5 28     LDA  $28
 9EE1  05 29     ORA  $29
 9EE3  D0 DB     BNE  $9EC0
 9EE5  18        CLC  
 9EE6  B5 00     LDA  $00, X
 9EE8  75 08     ADC  $08, X
 9EEA  95 08     STA  $08, X
 9EEC  B5 01     LDA  $01, X
 9EEE  75 09     ADC  $09, X
 9EF0  95 09     STA  $09, X
 9EF2  38        SEC  
 9EF3  B5 06     LDA  $06, X
 9EF5  F5 00     SBC  $00, X
 9EF7  95 06     STA  $06, X
 9EF9  B5 07     LDA  $07, X
 9EFB  F5 01     SBC  $01, X
 9EFD  95 07     STA  $07, X
 9EFF  E8        INX  
 9F00  E8        INX  
 9F01  E8        INX  
 9F02  E8        INX  
 9F03  A9 FF     LDA  #$FF
 9F05  95 00     STA  $00, X
 9F07  95 01     STA  $01, X
 9F09  60        RTS  
 9F0A  24 20     BIT  $20
 9F0C  70 11     BVS  $9F1F
 9F0E  A9 60     LDA  #$60
 9F10  20 1F DB  JSR  $DB1F
 9F13  CA        DEX  
 9F14  CA        DEX  
 9F15  A5 04     LDA  $04
 9F17  95 00     STA  $00, X
 9F19  A5 05     LDA  $05
 9F1B  95 01     STA  $01, X
 9F1D  80 45     BRA  $9F64
 9F1F  A0 06     LDY  #$06
 9F21  A5 00     LDA  $00
 9F23  91 04     STA  ($04), Y
 9F25  C8        INY  
 9F26  A5 01     LDA  $01
 9F28  91 04     STA  ($04), Y
 9F2A  A9 60     LDA  #$60
 9F2C  20 1F DB  JSR  $DB1F
 9F2F  24 20     BIT  $20
 9F31  10 26     BPL  $9F59
 9F33  CA        DEX  
 9F34  CA        DEX  
 9F35  CA        DEX  
 9F36  CA        DEX  
 9F37  B2 04     LDA  ($04)
 9F39  95 00     STA  $00, X
 9F3B  74 01     STZ  $01, X
 9F3D  A5 04     LDA  $04
 9F3F  18        CLC  
 9F40  69 08     ADC  #$08
 9F42  95 02     STA  $02, X
 9F44  A5 05     LDA  $05
 9F46  69 00     ADC  #$00
 9F48  95 03     STA  $03, X
 9F4A  A9 02     LDA  #$02
 9F4C  20 98 DC  JSR  $DC98
 9F4F  20 7F A4  JSR  $A47F
 9F52  20 A0 A0  JSR  $A0A0
 9F55  A9 80     LDA  #$80
 9F57  14 20     TRB  $20
 9F59  A5 04     LDA  $04
 9F5B  85 02     STA  $02
 9F5D  A5 05     LDA  $05
 9F5F  85 03     STA  $03
 9F61  20 C1 DB  JSR  $DBC1
 9F64  64 16     STZ  $16
 9F66  64 17     STZ  $17
 9F68  60        RTS  
 9F69  20 6C DC  JSR  $DC6C
 9F6C  B5 01     LDA  $01, X
 9F6E  30 04     BMI  $9F74
 9F70  E8        INX  
 9F71  E8        INX  
 9F72  80 09     BRA  $9F7D
 9F74  A9 2D     LDA  #$2D
 9F76  95 00     STA  $00, X
 9F78  74 01     STZ  $01, X
 9F7A  20 C7 91  JSR  $91C7
 9F7D  60        RTS  
 9F7E  A9 00     LDA  #$00
 9F80  48        PHA  
 9F81  80 03     BRA  $9F86
 9F83  A9 FF     LDA  #$FF
 9F85  48        PHA  
 9F86  20 EC A2  JSR  $A2EC
 9F89  20 2E 9E  JSR  $9E2E
 9F8C  20 14 9A  JSR  $9A14
 9F8F  20 57 A0  JSR  $A057
 9F92  68        PLA  
 9F93  D0 05     BNE  $9F9A
 9F95  20 2A A1  JSR  $A12A
 9F98  E8        INX  
 9F99  E8        INX  
 9F9A  60        RTS  
 9F9B  20 76 DC  JSR  $DC76
 9F9E  18        CLC  
 9F9F  B5 00     LDA  $00, X
 9FA1  75 04     ADC  $04, X
 9FA3  95 04     STA  $04, X
 9FA5  B5 01     LDA  $01, X
 9FA7  75 05     ADC  $05, X
 9FA9  95 05     STA  $05, X
 9FAB  38        SEC  
 9FAC  B5 02     LDA  $02, X
 9FAE  F5 00     SBC  $00, X
 9FB0  95 02     STA  $02, X
 9FB2  B5 03     LDA  $03, X
 9FB4  F5 01     SBC  $01, X
 9FB6  95 03     STA  $03, X
 9FB8  E8        INX  
 9FB9  E8        INX  
 9FBA  60        RTS  
 9FBB  20 71 DC  JSR  $DC71
 9FBE  A9 4C     LDA  #$4C
 9FC0  20 1F DB  JSR  $DB1F
 9FC3  20 1F DB  JSR  $DB1F
 9FC6  20 1F DB  JSR  $DB1F
 9FC9  8A        TXA  
 9FCA  38        SEC  
 9FCB  E9 06     SBC  #$06
 9FCD  AA        TAX  
 9FCE  B5 08     LDA  $08, X
 9FD0  95 04     STA  $04, X
 9FD2  B5 09     LDA  $09, X
 9FD4  95 05     STA  $05, X
 9FD6  B5 06     LDA  $06, X
 9FD8  95 00     STA  $00, X
 9FDA  B5 07     LDA  $07, X
 9FDC  95 01     STA  $01, X
 9FDE  A5 00     LDA  $00
 9FE0  95 08     STA  $08, X
 9FE2  95 02     STA  $02, X
 9FE4  A5 01     LDA  $01
 9FE6  95 09     STA  $09, X
 9FE8  95 03     STA  $03, X
 9FEA  20 B2 95  JSR  $95B2
 9FED  18        CLC  
 9FEE  A5 00     LDA  $00
 9FF0  75 00     ADC  $00, X
 9FF2  85 00     STA  $00
 9FF4  A5 01     LDA  $01
 9FF6  75 01     ADC  $01, X
 9FF8  85 01     STA  $01
 9FFA  B5 02     LDA  $02, X
 9FFC  38        SEC  
 9FFD  E9 02     SBC  #$02
 9FFF  85 24     STA  $24
 A001  B5 03     LDA  $03, X
 A003  E9 00     SBC  #$00
 A005  85 25     STA  $25
 A007  A5 00     LDA  $00
 A009  92 24     STA  ($24)
 A00B  A0 01     LDY  #$01
 A00D  A5 01     LDA  $01
 A00F  91 24     STA  ($24), Y
 A011  A0 A0     LDY  #$A0
 A013  A9 2B     LDA  #$2B
 A015  20 0F DB  JSR  $DB0F
 A018  B4 03     LDY  $03, X
 A01A  B5 02     LDA  $02, X
 A01C  20 1B DB  JSR  $DB1B
 A01F  B4 01     LDY  $01, X
 A021  B5 00     LDA  $00, X
 A023  20 1B DB  JSR  $DB1B
 A026  E8        INX  
 A027  E8        INX  
 A028  E8        INX  
 A029  E8        INX  
 A02A  60        RTS  
 A02B  CA        DEX  
 A02C  CA        DEX  
 A02D  CA        DEX  
 A02E  CA        DEX  
 A02F  68        PLA  
 A030  85 24     STA  $24
 A032  68        PLA  
 A033  85 25     STA  $25
 A035  A0 01     LDY  #$01
 A037  B1 24     LDA  ($24), Y
 A039  95 02     STA  $02, X
 A03B  C8        INY  
 A03C  B1 24     LDA  ($24), Y
 A03E  95 03     STA  $03, X
 A040  C8        INY  
 A041  B1 24     LDA  ($24), Y
 A043  95 00     STA  $00, X
 A045  C8        INY  
 A046  B1 24     LDA  ($24), Y
 A048  95 01     STA  $01, X
 A04A  18        CLC  
 A04B  A5 24     LDA  $24
 A04D  69 04     ADC  #$04
 A04F  A8        TAY  
 A050  A5 25     LDA  $25
 A052  69 00     ADC  #$00
 A054  48        PHA  
 A055  5A        PHY  
 A056  60        RTS  
 A057  20 76 DC  JSR  $DC76
 A05A  B5 03     LDA  $03, X
 A05C  48        PHA  
 A05D  B5 01     LDA  $01, X
 A05F  55 03     EOR  $03, X
 A061  48        PHA  
 A062  20 39 81  JSR  $8139
 A065  E8        INX  
 A066  E8        INX  
 A067  20 76 8A  JSR  $8A76
 A06A  CA        DEX  
 A06B  CA        DEX  
 A06C  20 36 A5  JSR  $A536
 A06F  68        PLA  
 A070  10 03     BPL  $A075
 A072  20 13 96  JSR  $9613
 A075  68        PLA  
 A076  10 07     BPL  $A07F
 A078  E8        INX  
 A079  E8        INX  
 A07A  20 13 96  JSR  $9613
 A07D  CA        DEX  
 A07E  CA        DEX  
 A07F  60        RTS  
 A080  CA        DEX  
 A081  CA        DEX  
 A082  A5 08     LDA  $08
 A084  95 00     STA  $00, X
 A086  A5 09     LDA  $09
 A088  95 01     STA  $01, X
 A08A  CA        DEX  
 A08B  CA        DEX  
 A08C  A5 0A     LDA  $0A
 A08E  95 00     STA  $00, X
 A090  A5 0B     LDA  $0B
 A092  95 01     STA  $01, X
 A094  60        RTS  
 A095  CA        DEX  
 A096  CA        DEX  
 A097  A5 06     LDA  $06
 A099  95 00     STA  $00, X
 A09B  A5 07     LDA  $07
 A09D  95 01     STA  $01, X
 A09F  60        RTS  
 A0A0  A9 20     LDA  #$20
 A0A2  20 E6 8D  JSR  $8DE6
 A0A5  60        RTS  
 A0A6  20 6C DC  JSR  $DC6C
 A0A9  B5 00     LDA  $00, X
 A0AB  15 01     ORA  $01, X
 A0AD  F0 2A     BEQ  $A0D9
 A0AF  B4 01     LDY  $01, X
 A0B1  D0 0C     BNE  $A0BF
 A0B3  B4 00     LDY  $00, X
 A0B5  A9 20     LDA  #$20
 A0B7  20 E6 8D  JSR  $8DE6
 A0BA  88        DEY  
 A0BB  F0 1C     BEQ  $A0D9
 A0BD  80 F6     BRA  $A0B5
 A0BF  B4 00     LDY  $00, X
 A0C1  F0 08     BEQ  $A0CB
 A0C3  A9 20     LDA  #$20
 A0C5  20 E6 8D  JSR  $8DE6
 A0C8  88        DEY  
 A0C9  80 F6     BRA  $A0C1
 A0CB  A0 00     LDY  #$00
 A0CD  A9 20     LDA  #$20
 A0CF  20 E6 8D  JSR  $8DE6
 A0D2  88        DEY  
 A0D3  D0 F8     BNE  $A0CD
 A0D5  D6 01     DEC  $01, X
 A0D7  D0 F2     BNE  $A0CB
 A0D9  E8        INX  
 A0DA  E8        INX  
 A0DB  60        RTS  
 A0DC  20 71 DC  JSR  $DC71
 A0DF  20 78 A5  JSR  $A578
 A0E2  E8        INX  
 A0E3  E8        INX  
 A0E4  60        RTS  
 A0E5  20 EE A0  JSR  $A0EE
 A0E8  20 2A A1  JSR  $A12A
 A0EB  E8        INX  
 A0EC  E8        INX  
 A0ED  60        RTS  
 A0EE  20 76 DC  JSR  $DC76
 A0F1  20 EC A2  JSR  $A2EC
 A0F4  20 7E 94  JSR  $947E
 A0F7  20 14 9A  JSR  $9A14
 A0FA  20 57 A0  JSR  $A057
 A0FD  60        RTS  
 A0FE  CA        DEX  
 A0FF  CA        DEX  
 A100  A9 16     LDA  #$16
 A102  95 00     STA  $00, X
 A104  A9 00     LDA  #$00
 A106  95 01     STA  $01, X
 A108  60        RTS  
 A109  20 71 DC  JSR  $DC71
 A10C  B5 02     LDA  $02, X
 A10E  81 00     STA  ($00, X)
 A110  F6 00     INC  $00, X
 A112  D0 02     BNE  $A116
 A114  F6 01     INC  $01, X
 A116  B5 03     LDA  $03, X
 A118  81 00     STA  ($00, X)
 A11A  E8        INX  
 A11B  E8        INX  
 A11C  E8        INX  
 A11D  E8        INX  
 A11E  60        RTS  
 A11F  CA        DEX  
 A120  CA        DEX  
 A121  A9 1C     LDA  #$1C
 A123  95 00     STA  $00, X
 A125  A9 00     LDA  #$00
 A127  95 01     STA  $01, X
 A129  60        RTS  
 A12A  20 71 DC  JSR  $DC71
 A12D  B5 00     LDA  $00, X
 A12F  B4 02     LDY  $02, X
 A131  95 02     STA  $02, X
 A133  94 00     STY  $00, X
 A135  B5 01     LDA  $01, X
 A137  B4 03     LDY  $03, X
 A139  95 03     STA  $03, X
 A13B  94 01     STY  $01, X
 A13D  60        RTS  
 A13E  20 62 91  JSR  $9162
 A141  20 2A A1  JSR  $A12A
 A144  20 09 A1  JSR  $A109
 A147  60        RTS  
 A148  20 71 DC  JSR  $DC71
 A14B  B5 01     LDA  $01, X
 A14D  48        PHA  
 A14E  B5 00     LDA  $00, X
 A150  48        PHA  
 A151  E8        INX  
 A152  E8        INX  
 A153  B5 01     LDA  $01, X
 A155  48        PHA  
 A156  B5 00     LDA  $00, X
 A158  48        PHA  
 A159  20 A7 93  JSR  $93A7
 A15C  68        PLA  
 A15D  85 24     STA  $24
 A15F  68        PLA  
 A160  85 25     STA  $25
 A162  68        PLA  
 A163  85 26     STA  $26
 A165  68        PLA  
 A166  85 27     STA  $27
 A168  C5 25     CMP  $25
 A16A  D0 08     BNE  $A174
 A16C  A5 26     LDA  $26
 A16E  C5 24     CMP  $24
 A170  D0 02     BNE  $A174
 A172  80 18     BRA  $A18C
 A174  A5 27     LDA  $27
 A176  48        PHA  
 A177  A5 26     LDA  $26
 A179  48        PHA  
 A17A  E6 24     INC  $24
 A17C  D0 02     BNE  $A180
 A17E  E6 25     INC  $25
 A180  CA        DEX  
 A181  CA        DEX  
 A182  A5 24     LDA  $24
 A184  95 00     STA  $00, X
 A186  A5 25     LDA  $25
 A188  95 01     STA  $01, X
 A18A  80 C7     BRA  $A153
 A18C  60        RTS  
 A18D  20 61 98  JSR  $9861
 A190  B5 00     LDA  $00, X
 A192  15 01     ORA  $01, X
 A194  D0 05     BNE  $A19B
 A196  A9 05     LDA  #$05
 A198  4C 82 DC  JMP  $DC82
 A19B  20 CB 8F  JSR  $8FCB
 A19E  B5 00     LDA  $00, X
 A1A0  15 01     ORA  $01, X
 A1A2  D0 05     BNE  $A1A9
 A1A4  A9 08     LDA  #$08
 A1A6  4C 82 DC  JMP  $DC82
 A1A9  20 D1 95  JSR  $95D1
 A1AC  60        RTS  
 A1AD  20 8D A1  JSR  $A18D
 A1B0  B5 00     LDA  $00, X
 A1B2  18        CLC  
 A1B3  69 03     ADC  #$03
 A1B5  85 24     STA  $24
 A1B7  B5 01     LDA  $01, X
 A1B9  69 00     ADC  #$00
 A1BB  85 25     STA  $25
 A1BD  E8        INX  
 A1BE  E8        INX  
 A1BF  A5 16     LDA  $16
 A1C1  05 17     ORA  $17
 A1C3  F0 34     BEQ  $A1F9
 A1C5  A0 00     LDY  #$00
 A1C7  A9 B5     LDA  #$B5
 A1C9  20 1B DB  JSR  $DB1B
 A1CC  A9 8D     LDA  #$8D
 A1CE  20 1F DB  JSR  $DB1F
 A1D1  A4 25     LDY  $25
 A1D3  A5 24     LDA  $24
 A1D5  20 1B DB  JSR  $DB1B
 A1D8  A0 01     LDY  #$01
 A1DA  A9 B5     LDA  #$B5
 A1DC  20 1B DB  JSR  $DB1B
 A1DF  A9 8D     LDA  #$8D
 A1E1  20 1F DB  JSR  $DB1F
 A1E4  E6 24     INC  $24
 A1E6  D0 02     BNE  $A1EA
 A1E8  E6 25     INC  $25
 A1EA  A4 25     LDY  $25
 A1EC  A5 24     LDA  $24
 A1EE  20 1B DB  JSR  $DB1B
 A1F1  A0 E8     LDY  #$E8
 A1F3  98        TYA  
 A1F4  20 1B DB  JSR  $DB1B
 A1F7  80 0F     BRA  $A208
 A1F9  20 6C DC  JSR  $DC6C
 A1FC  B5 00     LDA  $00, X
 A1FE  92 24     STA  ($24)
 A200  A0 01     LDY  #$01
 A202  B5 01     LDA  $01, X
 A204  91 24     STA  ($24), Y
 A206  E8        INX  
 A207  E8        INX  
 A208  60        RTS  
 A209  20 6C DC  JSR  $DC6C
 A20C  20 9F 8D  JSR  $8D9F
 A20F  20 68 92  JSR  $9268
 A212  F6 00     INC  $00, X
 A214  D0 02     BNE  $A218
 A216  F6 01     INC  $01, X
 A218  A1 00     LDA  ($00, X)
 A21A  29 20     AND  #$20
 A21C  F0 0D     BEQ  $A22B
 A21E  18        CLC  
 A21F  B5 02     LDA  $02, X
 A221  69 03     ADC  #$03
 A223  95 02     STA  $02, X
 A225  B5 03     LDA  $03, X
 A227  69 00     ADC  #$00
 A229  95 03     STA  $03, X
 A22B  E8        INX  
 A22C  E8        INX  
 A22D  60        RTS  
 A22E  CA        DEX  
 A22F  CA        DEX  
 A230  A9 0C     LDA  #$0C
 A232  95 00     STA  $00, X
 A234  A9 00     LDA  #$00
 A236  95 01     STA  $01, X
 A238  60        RTS  
 A239  20 7B DC  JSR  $DC7B
 A23C  B5 06     LDA  $06, X
 A23E  85 36     STA  $36
 A240  B5 07     LDA  $07, X
 A242  85 37     STA  $37
 A244  B5 04     LDA  $04, X
 A246  85 38     STA  $38
 A248  B5 05     LDA  $05, X
 A24A  85 39     STA  $39
 A24C  CA        DEX  
 A24D  CA        DEX  
 A24E  A1 04     LDA  ($04, X)
 A250  95 00     STA  $00, X
 A252  74 01     STZ  $01, X
 A254  20 F5 8A  JSR  $8AF5
 A257  B5 00     LDA  $00, X
 A259  D0 04     BNE  $A25F
 A25B  E8        INX  
 A25C  E8        INX  
 A25D  80 67     BRA  $A2C6
 A25F  B5 02     LDA  $02, X
 A261  85 3A     STA  $3A
 A263  B5 03     LDA  $03, X
 A265  85 3B     STA  $3B
 A267  A5 38     LDA  $38
 A269  95 02     STA  $02, X
 A26B  A5 39     LDA  $39
 A26D  95 03     STA  $03, X
 A26F  A5 18     LDA  $18
 A271  95 00     STA  $00, X
 A273  74 01     STZ  $01, X
 A275  20 78 A5  JSR  $A578
 A278  B5 02     LDA  $02, X
 A27A  85 3C     STA  $3C
 A27C  B5 03     LDA  $03, X
 A27E  85 3D     STA  $3D
 A280  A5 36     LDA  $36
 A282  95 02     STA  $02, X
 A284  A5 37     LDA  $37
 A286  95 03     STA  $03, X
 A288  A5 18     LDA  $18
 A28A  95 00     STA  $00, X
 A28C  74 01     STZ  $01, X
 A28E  20 78 A5  JSR  $A578
 A291  B5 00     LDA  $00, X
 A293  85 38     STA  $38
 A295  B5 01     LDA  $01, X
 A297  85 39     STA  $39
 A299  B5 02     LDA  $02, X
 A29B  85 36     STA  $36
 A29D  B5 03     LDA  $03, X
 A29F  85 37     STA  $37
 A2A1  18        CLC  
 A2A2  A5 36     LDA  $36
 A2A4  65 3A     ADC  $3A
 A2A6  85 36     STA  $36
 A2A8  A5 37     LDA  $37
 A2AA  65 3B     ADC  $3B
 A2AC  85 37     STA  $37
 A2AE  A5 38     LDA  $38
 A2B0  65 3C     ADC  $3C
 A2B2  85 38     STA  $38
 A2B4  A5 39     LDA  $39
 A2B6  65 3D     ADC  $3D
 A2B8  85 39     STA  $39
 A2BA  E8        INX  
 A2BB  E8        INX  
 A2BC  F6 04     INC  $04, X
 A2BE  D0 02     BNE  $A2C2
 A2C0  F6 05     INC  $05, X
 A2C2  D6 02     DEC  $02, X
 A2C4  D0 88     BNE  $A24E
 A2C6  E8        INX  
 A2C7  E8        INX  
 A2C8  A5 36     LDA  $36
 A2CA  95 06     STA  $06, X
 A2CC  A5 37     LDA  $37
 A2CE  95 07     STA  $07, X
 A2D0  A5 38     LDA  $38
 A2D2  95 04     STA  $04, X
 A2D4  A5 39     LDA  $39
 A2D6  95 05     STA  $05, X
 A2D8  60        RTS  
 A2D9  20 EC A2  JSR  $A2EC
 A2DC  20 24 91  JSR  $9124
 A2DF  20 14 9A  JSR  $9A14
 A2E2  20 2A A1  JSR  $A12A
 A2E5  20 9F 97  JSR  $979F
 A2E8  20 9D 9C  JSR  $9C9D
 A2EB  60        RTS  
 A2EC  68        PLA  
 A2ED  85 2C     STA  $2C
 A2EF  7A        PLY  
 A2F0  20 6C DC  JSR  $DC6C
 A2F3  B5 01     LDA  $01, X
 A2F5  48        PHA  
 A2F6  B5 00     LDA  $00, X
 A2F8  48        PHA  
 A2F9  E8        INX  
 A2FA  E8        INX  
 A2FB  5A        PHY  
 A2FC  A5 2C     LDA  $2C
 A2FE  48        PHA  
 A2FF  60        RTS  
 A300  CA        DEX  
 A301  CA        DEX  
 A302  A9 FF     LDA  #$FF
 A304  95 00     STA  $00, X
 A306  95 01     STA  $01, X
 A308  60        RTS  
 A309  20 71 DC  JSR  $DC71
 A30C  CA        DEX  
 A30D  CA        DEX  
 A30E  B4 04     LDY  $04, X
 A310  B5 02     LDA  $02, X
 A312  95 04     STA  $04, X
 A314  94 02     STY  $02, X
 A316  95 00     STA  $00, X
 A318  B4 05     LDY  $05, X
 A31A  B5 03     LDA  $03, X
 A31C  95 05     STA  $05, X
 A31E  94 03     STY  $03, X
 A320  95 01     STA  $01, X
 A322  60        RTS  
 A323  CA        DEX  
 A324  CA        DEX  
 A325  A9 02     LDA  #$02
 A327  95 00     STA  $00, X
 A329  74 01     STZ  $01, X
 A32B  60        RTS  
 A32C  20 71 DC  JSR  $DC71
 A32F  E8        INX  
 A330  E8        INX  
 A331  E8        INX  
 A332  E8        INX  
 A333  60        RTS  
 A334  20 71 DC  JSR  $DC71
 A337  CA        DEX  
 A338  CA        DEX  
 A339  CA        DEX  
 A33A  CA        DEX  
 A33B  B5 04     LDA  $04, X
 A33D  95 00     STA  $00, X
 A33F  B5 05     LDA  $05, X
 A341  95 01     STA  $01, X
 A343  B5 06     LDA  $06, X
 A345  95 02     STA  $02, X
 A347  B5 07     LDA  $07, X
 A349  95 03     STA  $03, X
 A34B  60        RTS  
 A34C  20 6C DC  JSR  $DC6C
 A34F  B5 00     LDA  $00, X
 A351  85 24     STA  $24
 A353  B4 01     LDY  $01, X
 A355  84 25     STY  $25
 A357  CA        DEX  
 A358  CA        DEX  
 A359  B2 24     LDA  ($24)
 A35B  95 00     STA  $00, X
 A35D  A0 01     LDY  #$01
 A35F  B1 24     LDA  ($24), Y
 A361  95 01     STA  $01, X
 A363  C8        INY  
 A364  B1 24     LDA  ($24), Y
 A366  95 02     STA  $02, X
 A368  C8        INY  
 A369  B1 24     LDA  ($24), Y
 A36B  95 03     STA  $03, X
 A36D  60        RTS  
 A36E  20 7B DC  JSR  $DC7B
 A371  CA        DEX  
 A372  CA        DEX  
 A373  CA        DEX  
 A374  CA        DEX  
 A375  B5 08     LDA  $08, X
 A377  95 00     STA  $00, X
 A379  B5 09     LDA  $09, X
 A37B  95 01     STA  $01, X
 A37D  B5 0A     LDA  $0A, X
 A37F  95 02     STA  $02, X
 A381  B5 0B     LDA  $0B, X
 A383  95 03     STA  $03, X
 A385  60        RTS  
 A386  CA        DEX  
 A387  CA        DEX  
 A388  CA        DEX  
 A389  CA        DEX  
 A38A  8A        TXA  
 A38B  BA        TSX  
 A38C  DA        PHX  
 A38D  7A        PLY  
 A38E  AA        TAX  
 A38F  B9 03 01  LDA  $0103, Y
 A392  95 00     STA  $00, X
 A394  B9 04 01  LDA  $0104, Y
 A397  95 01     STA  $01, X
 A399  B9 05 01  LDA  $0105, Y
 A39C  95 02     STA  $02, X
 A39E  B9 06 01  LDA  $0106, Y
 A3A1  95 03     STA  $03, X
 A3A3  60        RTS  
 A3A4  68        PLA  
 A3A5  85 24     STA  $24
 A3A7  68        PLA  
 A3A8  85 25     STA  $25
 A3AA  CA        DEX  
 A3AB  CA        DEX  
 A3AC  CA        DEX  
 A3AD  CA        DEX  
 A3AE  68        PLA  
 A3AF  95 00     STA  $00, X
 A3B1  68        PLA  
 A3B2  95 01     STA  $01, X
 A3B4  68        PLA  
 A3B5  95 02     STA  $02, X
 A3B7  68        PLA  
 A3B8  95 03     STA  $03, X
 A3BA  A5 25     LDA  $25
 A3BC  48        PHA  
 A3BD  A5 24     LDA  $24
 A3BF  48        PHA  
 A3C0  60        RTS  
 A3C1  20 6C DC  JSR  $DC6C
 A3C4  B5 01     LDA  $01, X
 A3C6  0A        ASL  
 A3C7  76 01     ROR  $01, X
 A3C9  76 00     ROR  $00, X
 A3CB  60        RTS  
 A3CC  20 6C DC  JSR  $DC6C
 A3CF  16 00     ASL  $00, X
 A3D1  36 01     ROL  $01, X
 A3D3  60        RTS  
 A3D4  20 76 DC  JSR  $DC76
 A3D7  B5 00     LDA  $00, X
 A3D9  85 24     STA  $24
 A3DB  B4 01     LDY  $01, X
 A3DD  84 25     STY  $25
 A3DF  E8        INX  
 A3E0  E8        INX  
 A3E1  B5 00     LDA  $00, X
 A3E3  92 24     STA  ($24)
 A3E5  B5 01     LDA  $01, X
 A3E7  A0 01     LDY  #$01
 A3E9  91 24     STA  ($24), Y
 A3EB  B5 02     LDA  $02, X
 A3ED  C8        INY  
 A3EE  91 24     STA  ($24), Y
 A3F0  B5 03     LDA  $03, X
 A3F2  C8        INY  
 A3F3  91 24     STA  ($24), Y
 A3F5  E8        INX  
 A3F6  E8        INX  
 A3F7  E8        INX  
 A3F8  E8        INX  
 A3F9  60        RTS  
 A3FA  20 7B DC  JSR  $DC7B
 A3FD  B5 00     LDA  $00, X
 A3FF  B4 04     LDY  $04, X
 A401  95 04     STA  $04, X
 A403  94 00     STY  $00, X
 A405  B5 01     LDA  $01, X
 A407  B4 05     LDY  $05, X
 A409  95 05     STA  $05, X
 A40B  94 01     STY  $01, X
 A40D  B5 02     LDA  $02, X
 A40F  B4 06     LDY  $06, X
 A411  95 06     STA  $06, X
 A413  94 02     STY  $02, X
 A415  B5 03     LDA  $03, X
 A417  B4 07     LDY  $07, X
 A419  95 07     STA  $07, X
 A41B  94 03     STY  $03, X
 A41D  60        RTS  
 A41E  68        PLA  
 A41F  85 24     STA  $24
 A421  68        PLA  
 A422  85 25     STA  $25
 A424  20 71 DC  JSR  $DC71
 A427  B5 03     LDA  $03, X
 A429  48        PHA  
 A42A  B5 02     LDA  $02, X
 A42C  48        PHA  
 A42D  B5 01     LDA  $01, X
 A42F  48        PHA  
 A430  B5 00     LDA  $00, X
 A432  48        PHA  
 A433  E8        INX  
 A434  E8        INX  
 A435  E8        INX  
 A436  E8        INX  
 A437  A5 25     LDA  $25
 A439  48        PHA  
 A43A  A5 24     LDA  $24
 A43C  48        PHA  
 A43D  60        RTS  
 A43E  20 71 DC  JSR  $DC71
 A441  20 59 89  JSR  $8959
 A444  20 2A A1  JSR  $A12A
 A447  20 5E 87  JSR  $875E
 A44A  20 5E 87  JSR  $875E
 A44D  20 F4 8B  JSR  $8BF4
 A450  20 55 DB  JSR  $DB55
 A453  20 9F 8D  JSR  $8D9F
 A456  20 70 8F  JSR  $8F70
 A459  20 2A A1  JSR  $A12A
 A45C  20 11 86  JSR  $8611
 A45F  20 70 8F  JSR  $8F70
 A462  60        RTS  
 A463  20 71 DC  JSR  $DC71
 A466  20 2A A1  JSR  $A12A
 A469  20 7A 93  JSR  $937A
 A46C  20 7A 93  JSR  $937A
 A46F  60        RTS  
 A470  20 59 89  JSR  $8959
 A473  CA        DEX  
 A474  CA        DEX  
 A475  A9 04     LDA  #$04
 A477  95 00     STA  $00, X
 A479  74 01     STZ  $01, X
 A47B  20 AB 82  JSR  $82AB
 A47E  60        RTS  
 A47F  20 71 DC  JSR  $DC71
 A482  B5 02     LDA  $02, X
 A484  85 24     STA  $24
 A486  B5 03     LDA  $03, X
 A488  85 25     STA  $25
 A48A  B5 00     LDA  $00, X
 A48C  15 01     ORA  $01, X
 A48E  F0 15     BEQ  $A4A5
 A490  B2 24     LDA  ($24)
 A492  20 E6 8D  JSR  $8DE6
 A495  E6 24     INC  $24
 A497  D0 02     BNE  $A49B
 A499  E6 25     INC  $25
 A49B  B5 00     LDA  $00, X
 A49D  D0 02     BNE  $A4A1
 A49F  D6 01     DEC  $01, X
 A4A1  D6 00     DEC  $00, X
 A4A3  80 E5     BRA  $A48A
 A4A5  E8        INX  
 A4A6  E8        INX  
 A4A7  E8        INX  
 A4A8  E8        INX  
 A4A9  60        RTS  
 A4AA  20 6C DC  JSR  $DC6C
 A4AD  20 B8 DC  JSR  $DCB8
 A4B0  A9 20     LDA  #$20
 A4B2  20 E6 8D  JSR  $8DE6
 A4B5  60        RTS  
 A4B6  20 71 DC  JSR  $DC71
 A4B9  20 EC A2  JSR  $A2EC
 A4BC  20 23 A7  JSR  $A723
 A4BF  20 4A 93  JSR  $934A
 A4C2  20 60 97  JSR  $9760
 A4C5  20 3E 97  JSR  $973E
 A4C8  20 14 9A  JSR  $9A14
 A4CB  20 15 98  JSR  $9815
 A4CE  20 40 95  JSR  $9540
 A4D1  20 A6 A0  JSR  $A0A6
 A4D4  20 7F A4  JSR  $A47F
 A4D7  60        RTS  
 A4D8  20 71 DC  JSR  $DC71
 A4DB  B5 00     LDA  $00, X
 A4DD  D5 02     CMP  $02, X
 A4DF  B5 01     LDA  $01, X
 A4E1  F5 03     SBC  $03, X
 A4E3  E8        INX  
 A4E4  E8        INX  
 A4E5  A9 00     LDA  #$00
 A4E7  69 FF     ADC  #$FF
 A4E9  95 00     STA  $00, X
 A4EB  95 01     STA  $01, X
 A4ED  60        RTS  
 A4EE  20 71 DC  JSR  $DC71
 A4F1  B5 02     LDA  $02, X
 A4F3  D5 00     CMP  $00, X
 A4F5  B5 03     LDA  $03, X
 A4F7  F5 01     SBC  $01, X
 A4F9  E8        INX  
 A4FA  E8        INX  
 A4FB  A9 00     LDA  #$00
 A4FD  69 FF     ADC  #$FF
 A4FF  95 00     STA  $00, X
 A501  95 01     STA  $01, X
 A503  60        RTS  
 A504  20 71 DC  JSR  $DC71
 A507  20 4A 93  JSR  $934A
 A50A  20 60 97  JSR  $9760
 A50D  20 3E 97  JSR  $973E
 A510  20 7F A4  JSR  $A47F
 A513  20 A0 A0  JSR  $A0A0
 A516  60        RTS  
 A517  20 76 DC  JSR  $DC76
 A51A  20 EC A2  JSR  $A2EC
 A51D  20 4A 93  JSR  $934A
 A520  20 60 97  JSR  $9760
 A523  20 3E 97  JSR  $973E
 A526  20 14 9A  JSR  $9A14
 A529  20 15 98  JSR  $9815
 A52C  20 40 95  JSR  $9540
 A52F  20 A6 A0  JSR  $A0A6
 A532  20 7F A4  JSR  $A47F
 A535  60        RTS  
 A536  20 76 DC  JSR  $DC76
 A539  B5 00     LDA  $00, X
 A53B  15 01     ORA  $01, X
 A53D  D0 05     BNE  $A544
 A53F  A9 04     LDA  #$04
 A541  4C 82 DC  JMP  $DC82
 A544  A9 11     LDA  #$11
 A546  85 2C     STA  $2C
 A548  36 04     ROL  $04, X
 A54A  36 05     ROL  $05, X
 A54C  C6 2C     DEC  $2C
 A54E  F0 22     BEQ  $A572
 A550  36 02     ROL  $02, X
 A552  36 03     ROL  $03, X
 A554  64 24     STZ  $24
 A556  26 24     ROL  $24
 A558  38        SEC  
 A559  B5 02     LDA  $02, X
 A55B  F5 00     SBC  $00, X
 A55D  85 25     STA  $25
 A55F  B5 03     LDA  $03, X
 A561  F5 01     SBC  $01, X
 A563  A8        TAY  
 A564  A5 24     LDA  $24
 A566  E9 00     SBC  #$00
 A568  90 DE     BCC  $A548
 A56A  A5 25     LDA  $25
 A56C  95 02     STA  $02, X
 A56E  94 03     STY  $03, X
 A570  80 D6     BRA  $A548
 A572  E8        INX  
 A573  E8        INX  
 A574  20 2A A1  JSR  $A12A
 A577  60        RTS  
 A578  20 71 DC  JSR  $DC71
 A57B  18        CLC  
 A57C  B5 00     LDA  $00, X
 A57E  E9 00     SBC  #$00
 A580  85 26     STA  $26
 A582  B5 01     LDA  $01, X
 A584  E9 00     SBC  #$00
 A586  90 31     BCC  $A5B9
 A588  85 27     STA  $27
 A58A  A9 00     LDA  #$00
 A58C  85 24     STA  $24
 A58E  86 28     STX  $28
 A590  CA        DEX  
 A591  CA        DEX  
 A592  A0 08     LDY  #$08
 A594  56 04     LSR  $04, X
 A596  90 0C     BCC  $A5A4
 A598  85 25     STA  $25
 A59A  A5 24     LDA  $24
 A59C  65 26     ADC  $26
 A59E  85 24     STA  $24
 A5A0  A5 25     LDA  $25
 A5A2  65 27     ADC  $27
 A5A4  6A        ROR  
 A5A5  66 24     ROR  $24
 A5A7  76 04     ROR  $04, X
 A5A9  88        DEY  
 A5AA  D0 EA     BNE  $A596
 A5AC  E8        INX  
 A5AD  E4 28     CPX  $28
 A5AF  D0 E1     BNE  $A592
 A5B1  95 01     STA  $01, X
 A5B3  A5 24     LDA  $24
 A5B5  95 00     STA  $00, X
 A5B7  80 04     BRA  $A5BD
 A5B9  74 02     STZ  $02, X
 A5BB  74 03     STZ  $03, X
 A5BD  60        RTS  
 A5BE  68        PLA  
 A5BF  68        PLA  
 A5C0  68        PLA  
 A5C1  68        PLA  
 A5C2  68        PLA  
 A5C3  68        PLA  
 A5C4  60        RTS  
 A5C5  A0 92     LDY  #$92
 A5C7  A9 04     LDA  #$04
 A5C9  20 0F DB  JSR  $DB0F
 A5CC  20 5E 87  JSR  $875E
 A5CF  60        RTS  
 A5D0  CA        DEX  
 A5D1  CA        DEX  
 A5D2  A9 FD     LDA  #$FD
 A5D4  38        SEC  
 A5D5  E5 00     SBC  $00
 A5D7  95 00     STA  $00, X
 A5D9  A9 77     LDA  #$77
 A5DB  E5 01     SBC  $01
 A5DD  95 01     STA  $01, X
 A5DF  60        RTS  
 A5E0  A0 2C     LDY  #$2C
 A5E2  B1 1E     LDA  ($1E), Y
 A5E4  09 02     ORA  #$02
 A5E6  91 1E     STA  ($1E), Y
 A5E8  60        RTS  
 A5E9  CA        DEX  
 A5EA  CA        DEX  
 A5EB  A9 1E     LDA  #$1E
 A5ED  95 00     STA  $00, X
 A5EF  A9 00     LDA  #$00
 A5F1  95 01     STA  $01, X
 A5F3  60        RTS  
 A5F4  20 59 89  JSR  $8959
 A5F7  A9 00     LDA  #$00
 A5F9  92 00     STA  ($00)
 A5FB  E6 00     INC  $00
 A5FD  D0 02     BNE  $A601
 A5FF  E6 01     INC  $01
 A601  92 00     STA  ($00)
 A603  E6 00     INC  $00
 A605  D0 02     BNE  $A609
 A607  E6 01     INC  $01
 A609  20 21 89  JSR  $8921
 A60C  60        RTS  
 A60D  A0 92     LDY  #$92
 A60F  A9 04     LDA  #$04
 A611  20 0F DB  JSR  $DB0F
 A614  20 62 91  JSR  $9162
 A617  20 23 A7  JSR  $A723
 A61A  20 5E 87  JSR  $875E
 A61D  20 2A A1  JSR  $A12A
 A620  60        RTS  
 A621  20 76 DC  JSR  $DC76
 A624  20 15 98  JSR  $9815
 A627  20 40 95  JSR  $9540
 A62A  20 EC A2  JSR  $A2EC
 A62D  20 40 95  JSR  $9540
 A630  20 14 9A  JSR  $9A14
 A633  20 EE A4  JSR  $A4EE
 A636  60        RTS  
 A637  20 6C DC  JSR  $DC6C
 A63A  A4 0C     LDY  $0C
 A63C  C4 0A     CPY  $0A
 A63E  F0 09     BEQ  $A649
 A640  B1 08     LDA  ($08), Y
 A642  D5 00     CMP  $00, X
 A644  D0 03     BNE  $A649
 A646  C8        INY  
 A647  80 F3     BRA  $A63C
 A649  84 0C     STY  $0C
 A64B  20 BC 98  JSR  $98BC
 A64E  B5 00     LDA  $00, X
 A650  92 00     STA  ($00)
 A652  48        PHA  
 A653  20 9F 8D  JSR  $8D9F
 A656  A5 00     LDA  $00
 A658  18        CLC  
 A659  69 01     ADC  #$01
 A65B  95 02     STA  $02, X
 A65D  A5 01     LDA  $01
 A65F  69 00     ADC  #$00
 A661  95 03     STA  $03, X
 A663  20 B2 95  JSR  $95B2
 A666  CA        DEX  
 A667  CA        DEX  
 A668  A5 00     LDA  $00
 A66A  95 00     STA  $00, X
 A66C  A5 01     LDA  $01
 A66E  95 01     STA  $01, X
 A670  68        PLA  
 A671  18        CLC  
 A672  65 00     ADC  $00
 A674  85 00     STA  $00
 A676  A5 01     LDA  $01
 A678  69 00     ADC  #$00
 A67A  85 01     STA  $01
 A67C  60        RTS  
 A67D  A0 05     LDY  #$05
 A67F  B1 1E     LDA  ($1E), Y
 A681  C9 0C     CMP  #$0C
 A683  D0 05     BNE  $A68A
 A685  A9 0B     LDA  #$0B
 A687  4C 82 DC  JMP  $DC82
 A68A  1A        INC  
 A68B  91 1E     STA  ($1E), Y
 A68D  CA        DEX  
 A68E  CA        DEX  
 A68F  95 00     STA  $00, X
 A691  74 01     STZ  $01, X
 A693  60        RTS  
 A694  20 53 89  JSR  $8953
 A697  A9 00     LDA  #$00
 A699  48        PHA  
 A69A  CA        DEX  
 A69B  CA        DEX  
 A69C  64 28     STZ  $28
 A69E  A0 1E     LDY  #$1E
 A6A0  A5 28     LDA  $28
 A6A2  D1 1E     CMP  ($1E), Y
 A6A4  D0 02     BNE  $A6A8
 A6A6  80 44     BRA  $A6EC
 A6A8  18        CLC  
 A6A9  69 1F     ADC  #$1F
 A6AB  A8        TAY  
 A6AC  B1 1E     LDA  ($1E), Y
 A6AE  0A        ASL  
 A6AF  18        CLC  
 A6B0  69 06     ADC  #$06
 A6B2  A8        TAY  
 A6B3  B1 1E     LDA  ($1E), Y
 A6B5  95 00     STA  $00, X
 A6B7  C8        INY  
 A6B8  B1 1E     LDA  ($1E), Y
 A6BA  95 01     STA  $01, X
 A6BC  20 9F 8D  JSR  $8D9F
 A6BF  20 EE 95  JSR  $95EE
 A6C2  68        PLA  
 A6C3  18        CLC  
 A6C4  75 00     ADC  $00, X
 A6C6  1A        INC  
 A6C7  C9 4F     CMP  #$4F
 A6C9  90 05     BCC  $A6D0
 A6CB  20 53 89  JSR  $8953
 A6CE  A9 00     LDA  #$00
 A6D0  48        PHA  
 A6D1  20 7F A4  JSR  $A47F
 A6D4  A9 20     LDA  #$20
 A6D6  20 E6 8D  JSR  $8DE6
 A6D9  20 9F 97  JSR  $979F
 A6DC  20 9F 97  JSR  $979F
 A6DF  20 70 8F  JSR  $8F70
 A6E2  B5 00     LDA  $00, X
 A6E4  15 01     ORA  $01, X
 A6E6  D0 D4     BNE  $A6BC
 A6E8  E6 28     INC  $28
 A6EA  80 B2     BRA  $A69E
 A6EC  68        PLA  
 A6ED  E8        INX  
 A6EE  E8        INX  
 A6EF  60        RTS  
 A6F0  20 6C DC  JSR  $DC6C
 A6F3  B5 00     LDA  $00, X
 A6F5  85 24     STA  $24
 A6F7  B5 01     LDA  $01, X
 A6F9  85 25     STA  $25
 A6FB  A0 06     LDY  #$06
 A6FD  B1 24     LDA  ($24), Y
 A6FF  88        DEY  
 A700  88        DEY  
 A701  38        SEC  
 A702  F1 24     SBC  ($24), Y
 A704  95 00     STA  $00, X
 A706  A0 07     LDY  #$07
 A708  B1 24     LDA  ($24), Y
 A70A  88        DEY  
 A70B  88        DEY  
 A70C  F1 24     SBC  ($24), Y
 A70E  95 01     STA  $01, X
 A710  60        RTS  
 A711  20 71 DC  JSR  $DC71
 A714  B5 00     LDA  $00, X
 A716  55 02     EOR  $02, X
 A718  95 02     STA  $02, X
 A71A  B5 01     LDA  $01, X
 A71C  55 03     EOR  $03, X
 A71E  95 03     STA  $03, X
 A720  E8        INX  
 A721  E8        INX  
 A722  60        RTS  
 A723  CA        DEX  
 A724  CA        DEX  
 A725  74 00     STZ  $00, X
 A727  74 01     STZ  $01, X
 A729  60        RTS  
 A72A  20 6C DC  JSR  $DC6C
 A72D  B5 00     LDA  $00, X
 A72F  15 01     ORA  $01, X
 A731  F0 04     BEQ  $A737
 A733  A9 00     LDA  #$00
 A735  80 02     BRA  $A739
 A737  A9 FF     LDA  #$FF
 A739  95 00     STA  $00, X
 A73B  95 01     STA  $01, X
 A73D  60        RTS  
 A73E  20 6C DC  JSR  $DC6C
 A741  A0 00     LDY  #$00
 A743  B5 01     LDA  $01, X
 A745  30 05     BMI  $A74C
 A747  15 00     ORA  $00, X
 A749  F0 01     BEQ  $A74C
 A74B  88        DEY  
 A74C  98        TYA  
 A74D  95 00     STA  $00, X
 A74F  95 01     STA  $01, X
 A751  60        RTS  
 A752  20 6C DC  JSR  $DC6C
 A755  A0 00     LDY  #$00
 A757  B5 01     LDA  $01, X
 A759  10 01     BPL  $A75C
 A75B  88        DEY  
 A75C  98        TYA  
 A75D  95 00     STA  $00, X
 A75F  95 01     STA  $01, X
 A761  60        RTS  
 A762  20 6C DC  JSR  $DC6C
 A765  A0 00     LDY  #$00
 A767  B5 00     LDA  $00, X
 A769  15 01     ORA  $01, X
 A76B  F0 01     BEQ  $A76E
 A76D  88        DEY  
 A76E  98        TYA  
 A76F  95 00     STA  $00, X
 A771  95 01     STA  $01, X
 A773  60        RTS  
 A774  20 9F 8D  JSR  $8D9F
 A777  20 5B 9E  JSR  $9E5B
 A77A  20 09 A1  JSR  $A109
 A77D  20 A5 85  JSR  $85A5
 A780  60        RTS  
 A781  20 74 A7  JSR  $A774
 A784  20 1E 8D  JSR  $8D1E
 A787  64 2E     STZ  $2E
 A789  CA        DEX  
 A78A  CA        DEX  
 A78B  A5 2E     LDA  $2E
 A78D  95 00     STA  $00, X
 A78F  74 01     STZ  $01, X
 A791  20 56 A8  JSR  $A856
 A794  E6 2E     INC  $2E
 A796  A9 10     LDA  #$10
 A798  C5 2E     CMP  $2E
 A79A  D0 ED     BNE  $A789
 A79C  60        RTS  
 A79D  20 74 A7  JSR  $A774
 A7A0  CA        DEX  
 A7A1  CA        DEX  
 A7A2  74 00     STZ  $00, X
 A7A4  A9 04     LDA  #$04
 A7A6  95 01     STA  $01, X
 A7A8  20 DA 8E  JSR  $8EDA
 A7AB  20 E0 A5  JSR  $A5E0
 A7AE  60        RTS  
 A7AF  20 3D A8  JSR  $A83D
 A7B2  CA        DEX  
 A7B3  CA        DEX  
 A7B4  A9 40     LDA  #$40
 A7B6  95 00     STA  $00, X
 A7B8  74 01     STZ  $01, X
 A7BA  20 DA 8E  JSR  $8EDA
 A7BD  20 E0 A5  JSR  $A5E0
 A7C0  60        RTS  
 A7C1  CA        DEX  
 A7C2  CA        DEX  
 A7C3  A0 02     LDY  #$02
 A7C5  B1 1E     LDA  ($1E), Y
 A7C7  95 00     STA  $00, X
 A7C9  C8        INY  
 A7CA  B1 1E     LDA  ($1E), Y
 A7CC  95 01     STA  $01, X
 A7CE  20 B1 83  JSR  $83B1
 A7D1  20 53 89  JSR  $8953
 A7D4  80 08     BRA  $A7DE
 A7D6  53 63 72 65 65 6E 20 23                          |Screen #        |
 A7DE  20 2B A0  JSR  $A02B
 A7E1  D6 A7 08 00                                      |....            |
 A7E5  20 7F A4  JSR  $A47F
 A7E8  20 5B 9E  JSR  $9E5B
 A7EB  20 70 8F  JSR  $8F70
 A7EE  CA        DEX  
 A7EF  CA        DEX  
 A7F0  A9 04     LDA  #$04
 A7F2  95 00     STA  $00, X
 A7F4  74 01     STZ  $01, X
 A7F6  20 B6 A4  JSR  $A4B6
 A7F9  64 28     STZ  $28
 A7FB  20 53 89  JSR  $8953
 A7FE  CA        DEX  
 A7FF  CA        DEX  
 A800  CA        DEX  
 A801  CA        DEX  
 A802  74 03     STZ  $03, X
 A804  A5 28     LDA  $28
 A806  95 02     STA  $02, X
 A808  74 01     STZ  $01, X
 A80A  A9 02     LDA  #$02
 A80C  95 00     STA  $00, X
 A80E  20 B6 A4  JSR  $A4B6
 A811  20 A0 A0  JSR  $A0A0
 A814  20 9F 8D  JSR  $8D9F
 A817  CA        DEX  
 A818  CA        DEX  
 A819  A9 40     LDA  #$40
 A81B  95 00     STA  $00, X
 A81D  74 01     STZ  $01, X
 A81F  20 7F A4  JSR  $A47F
 A822  18        CLC  
 A823  A9 40     LDA  #$40
 A825  75 00     ADC  $00, X
 A827  95 00     STA  $00, X
 A829  B5 01     LDA  $01, X
 A82B  69 00     ADC  #$00
 A82D  95 01     STA  $01, X
 A82F  E6 28     INC  $28
 A831  A5 28     LDA  $28
 A833  C9 10     CMP  #$10
 A835  D0 C4     BNE  $A7FB
 A837  20 53 89  JSR  $8953
 A83A  E8        INX  
 A83B  E8        INX  
 A83C  60        RTS  
 A83D  20 6C DC  JSR  $DC6C
 A840  A0 06     LDY  #$06
 A842  16 00     ASL  $00, X
 A844  36 01     ROL  $01, X
 A846  88        DEY  
 A847  D0 F9     BNE  $A842
 A849  20 5B 9E  JSR  $9E5B
 A84C  20 70 8F  JSR  $8F70
 A84F  20 B1 83  JSR  $83B1
 A852  20 65 99  JSR  $9965
 A855  60        RTS  
 A856  20 53 89  JSR  $8953
 A859  20 9F 8D  JSR  $8D9F
 A85C  20 23 A3  JSR  $A323
 A85F  20 B6 A4  JSR  $A4B6
 A862  20 A0 A0  JSR  $A0A0
 A865  A9 2A     LDA  #$2A
 A867  20 E6 8D  JSR  $8DE6
 A86A  20 A0 A0  JSR  $A0A0
 A86D  20 3D A8  JSR  $A83D
 A870  20 9F 8D  JSR  $8D9F
 A873  CA        DEX  
 A874  CA        DEX  
 A875  A9 40     LDA  #$40
 A877  95 00     STA  $00, X
 A879  74 01     STZ  $01, X
 A87B  20 4E 81  JSR  $814E
 A87E  20 9F 8D  JSR  $8D9F
 A881  20 5E 96  JSR  $965E
 A884  20 65 99  JSR  $9965
 A887  CA        DEX  
 A888  CA        DEX  
 A889  A9 40     LDA  #$40
 A88B  95 00     STA  $00, X
 A88D  74 01     STZ  $01, X
 A88F  20 D9 9A  JSR  $9AD9
 A892  20 40 95  JSR  $9540
 A895  20 DA 8E  JSR  $8EDA
 A898  20 E0 A5  JSR  $A5E0
 A89B  60        RTS  
 A89C  20 6C DC  JSR  $DC6C
 A89F  B5 00     LDA  $00, X
 A8A1  20 21 E4  JSR  $E421
 A8A4  E8        INX  
 A8A5  E8        INX  
 A8A6  60        RTS  
 A8A7  20 71 DC  JSR  $DC71
 A8AA  B5 02     LDA  $02, X
 A8AC  85 24     STA  $24
 A8AE  B5 03     LDA  $03, X
 A8B0  85 25     STA  $25
 A8B2  B5 00     LDA  $00, X
 A8B4  15 01     ORA  $01, X
 A8B6  F0 15     BEQ  $A8CD
 A8B8  B2 24     LDA  ($24)
 A8BA  20 21 E4  JSR  $E421
 A8BD  E6 24     INC  $24
 A8BF  D0 02     BNE  $A8C3
 A8C1  E6 25     INC  $25
 A8C3  B5 00     LDA  $00, X
 A8C5  D0 02     BNE  $A8C9
 A8C7  D6 01     DEC  $01, X
 A8C9  D6 00     DEC  $00, X
 A8CB  80 E5     BRA  $A8B2
 A8CD  E8        INX  
 A8CE  E8        INX  
 A8CF  E8        INX  
 A8D0  E8        INX  
 A8D1  60        RTS  
 A8D2  20 C3 E5  JSR  $E5C3
 A8D5  60        RTS  
 A8D6  20 6D E6  JSR  $E66D
 A8D9  60        RTS  
 A8DA  20 96 E6  JSR  $E696
 A8DD  60        RTS  
 A8DE  20 6C DC  JSR  $DC6C
 A8E1  B5 00     LDA  $00, X
 A8E3  20 82 E6  JSR  $E682
 A8E6  E8        INX  
 A8E7  E8        INX  
 A8E8  60        RTS  
 A8E9  20 6C DC  JSR  $DC6C
 A8EC  B5 00     LDA  $00, X
 A8EE  20 97 E6  JSR  $E697
 A8F1  95 00     STA  $00, X
 A8F3  74 01     STZ  $01, X
 A8F5  60        RTS  
 A8F6  20 6C DC  JSR  $DC6C
 A8F9  B5 00     LDA  $00, X
 A8FB  20 FF E6  JSR  $E6FF
 A8FE  95 00     STA  $00, X
 A900  74 01     STZ  $01, X
 A902  60        RTS  
 A903  A9 69     LDA  #$69
 A905  4C 5E AC  JMP  $AC5E
 A908  A9 7D     LDA  #$7D
 A90A  4C 5E AC  JMP  $AC5E
 A90D  A9 79     LDA  #$79
 A90F  4C 5E AC  JMP  $AC5E
 A912  A9 65     LDA  #$65
 A914  4C 5E AC  JMP  $AC5E
 A917  A9 72     LDA  #$72
 A919  4C 5E AC  JMP  $AC5E
 A91C  A9 71     LDA  #$71
 A91E  4C 5E AC  JMP  $AC5E
 A921  A9 75     LDA  #$75
 A923  4C 5E AC  JMP  $AC5E
 A926  A9 61     LDA  #$61
 A928  4C 5E AC  JMP  $AC5E
 A92B  A9 2D     LDA  #$2D
 A92D  4C 5E AC  JMP  $AC5E
 A930  A9 29     LDA  #$29
 A932  4C 5E AC  JMP  $AC5E
 A935  A9 3D     LDA  #$3D
 A937  4C 5E AC  JMP  $AC5E
 A93A  A9 39     LDA  #$39
 A93C  4C 5E AC  JMP  $AC5E
 A93F  A9 25     LDA  #$25
 A941  4C 5E AC  JMP  $AC5E
 A944  A9 32     LDA  #$32
 A946  4C 5E AC  JMP  $AC5E
 A949  A9 31     LDA  #$31
 A94B  4C 5E AC  JMP  $AC5E
 A94E  A9 35     LDA  #$35
 A950  4C 5E AC  JMP  $AC5E
 A953  A9 21     LDA  #$21
 A955  4C 5E AC  JMP  $AC5E
 A958  A9 0E     LDA  #$0E
 A95A  4C 5E AC  JMP  $AC5E
 A95D  A9 0A     LDA  #$0A
 A95F  4C 5E AC  JMP  $AC5E
 A962  A9 1E     LDA  #$1E
 A964  4C 5E AC  JMP  $AC5E
 A967  A9 06     LDA  #$06
 A969  4C 5E AC  JMP  $AC5E
 A96C  A9 16     LDA  #$16
 A96E  4C 5E AC  JMP  $AC5E
 A971  A9 90     LDA  #$90
 A973  4C 5E AC  JMP  $AC5E
 A976  A9 B0     LDA  #$B0
 A978  A0 02     LDY  #$02
 A97A  4C 5E AC  JMP  $AC5E
 A97D  A9 F0     LDA  #$F0
 A97F  4C 5E AC  JMP  $AC5E
 A982  A9 2C     LDA  #$2C
 A984  4C 5E AC  JMP  $AC5E
 A987  A9 89     LDA  #$89
 A989  4C 5E AC  JMP  $AC5E
 A98C  A9 3C     LDA  #$3C
 A98E  4C 5E AC  JMP  $AC5E
 A991  A9 24     LDA  #$24
 A993  4C 5E AC  JMP  $AC5E
 A996  A9 34     LDA  #$34
 A998  4C 5E AC  JMP  $AC5E
 A99B  A9 30     LDA  #$30
 A99D  4C 5E AC  JMP  $AC5E
 A9A0  A9 D0     LDA  #$D0
 A9A2  4C 5E AC  JMP  $AC5E
 A9A5  A9 10     LDA  #$10
 A9A7  4C 5E AC  JMP  $AC5E
 A9AA  A9 80     LDA  #$80
 A9AC  4C 5E AC  JMP  $AC5E
 A9AF  A9 00     LDA  #$00
 A9B1  4C 5E AC  JMP  $AC5E
 A9B4  A9 50     LDA  #$50
 A9B6  4C 5E AC  JMP  $AC5E
 A9B9  A9 70     LDA  #$70
 A9BB  4C 5E AC  JMP  $AC5E
 A9BE  A9 18     LDA  #$18
 A9C0  4C 5E AC  JMP  $AC5E
 A9C3  A9 D8     LDA  #$D8
 A9C5  4C 5E AC  JMP  $AC5E
 A9C8  A9 58     LDA  #$58
 A9CA  4C 5E AC  JMP  $AC5E
 A9CD  A9 B8     LDA  #$B8
 A9CF  4C 5E AC  JMP  $AC5E
 A9D2  A9 CD     LDA  #$CD
 A9D4  4C 5E AC  JMP  $AC5E
 A9D7  A9 C9     LDA  #$C9
 A9D9  4C 5E AC  JMP  $AC5E
 A9DC  A9 DD     LDA  #$DD
 A9DE  4C 5E AC  JMP  $AC5E
 A9E1  A9 D9     LDA  #$D9
 A9E3  4C 5E AC  JMP  $AC5E
 A9E6  A9 C5     LDA  #$C5
 A9E8  4C 5E AC  JMP  $AC5E
 A9EB  A9 D2     LDA  #$D2
 A9ED  4C 5E AC  JMP  $AC5E
 A9F0  A9 D1     LDA  #$D1
 A9F2  4C 5E AC  JMP  $AC5E
 A9F5  A9 D5     LDA  #$D5
 A9F7  4C 5E AC  JMP  $AC5E
 A9FA  A9 C1     LDA  #$C1
 A9FC  4C 5E AC  JMP  $AC5E
 A9FF  A9 EC     LDA  #$EC
 AA01  4C 5E AC  JMP  $AC5E
 AA04  A9 E0     LDA  #$E0
 AA06  4C 5E AC  JMP  $AC5E
 AA09  A9 E4     LDA  #$E4
 AA0B  4C 5E AC  JMP  $AC5E
 AA0E  A9 CC     LDA  #$CC
 AA10  A0 03     LDY  #$03
 AA12  4C 5E AC  JMP  $AC5E
 AA15  A9 C0     LDA  #$C0
 AA17  4C 5E AC  JMP  $AC5E
 AA1A  A9 C4     LDA  #$C4
 AA1C  4C 5E AC  JMP  $AC5E
 AA1F  A9 CE     LDA  #$CE
 AA21  4C 5E AC  JMP  $AC5E
 AA24  A9 3A     LDA  #$3A
 AA26  4C 5E AC  JMP  $AC5E
 AA29  A9 DE     LDA  #$DE
 AA2B  4C 5E AC  JMP  $AC5E
 AA2E  A9 C6     LDA  #$C6
 AA30  4C 5E AC  JMP  $AC5E
 AA33  A9 D6     LDA  #$D6
 AA35  4C 5E AC  JMP  $AC5E
 AA38  A9 CA     LDA  #$CA
 AA3A  4C 5E AC  JMP  $AC5E
 AA3D  A9 88     LDA  #$88
 AA3F  4C 5E AC  JMP  $AC5E
 AA42  A9 4D     LDA  #$4D
 AA44  4C 5E AC  JMP  $AC5E
 AA47  A9 49     LDA  #$49
 AA49  4C 5E AC  JMP  $AC5E
 AA4C  A9 5D     LDA  #$5D
 AA4E  4C 5E AC  JMP  $AC5E
 AA51  A9 59     LDA  #$59
 AA53  4C 5E AC  JMP  $AC5E
 AA56  A9 45     LDA  #$45
 AA58  4C 5E AC  JMP  $AC5E
 AA5B  A9 52     LDA  #$52
 AA5D  4C 5E AC  JMP  $AC5E
 AA60  A9 51     LDA  #$51
 AA62  4C 5E AC  JMP  $AC5E
 AA65  A9 55     LDA  #$55
 AA67  4C 5E AC  JMP  $AC5E
 AA6A  A9 41     LDA  #$41
 AA6C  4C 5E AC  JMP  $AC5E
 AA6F  A9 EE     LDA  #$EE
 AA71  4C 5E AC  JMP  $AC5E
 AA74  A9 1A     LDA  #$1A
 AA76  4C 5E AC  JMP  $AC5E
 AA79  A9 FE     LDA  #$FE
 AA7B  4C 5E AC  JMP  $AC5E
 AA7E  A9 E6     LDA  #$E6
 AA80  4C 5E AC  JMP  $AC5E
 AA83  A9 F6     LDA  #$F6
 AA85  4C 5E AC  JMP  $AC5E
 AA88  A9 E8     LDA  #$E8
 AA8A  4C 5E AC  JMP  $AC5E
 AA8D  A9 C8     LDA  #$C8
 AA8F  4C 5E AC  JMP  $AC5E
 AA92  A9 4C     LDA  #$4C
 AA94  4C 5E AC  JMP  $AC5E
 AA97  A9 6C     LDA  #$6C
 AA99  4C 5E AC  JMP  $AC5E
 AA9C  A9 7C     LDA  #$7C
 AA9E  4C 5E AC  JMP  $AC5E
 AAA1  A9 20     LDA  #$20
 AAA3  4C 5E AC  JMP  $AC5E
 AAA6  A9 AD     LDA  #$AD
 AAA8  4C 5E AC  JMP  $AC5E
 AAAB  A9 A9     LDA  #$A9
 AAAD  4C 5E AC  JMP  $AC5E
 AAB0  A9 BD     LDA  #$BD
 AAB2  4C 5E AC  JMP  $AC5E
 AAB5  A9 B9     LDA  #$B9
 AAB7  4C 5E AC  JMP  $AC5E
 AABA  A9 A5     LDA  #$A5
 AABC  4C 5E AC  JMP  $AC5E
 AABF  A9 B2     LDA  #$B2
 AAC1  4C 5E AC  JMP  $AC5E
 AAC4  A9 B1     LDA  #$B1
 AAC6  4C 5E AC  JMP  $AC5E
 AAC9  A9 B5     LDA  #$B5
 AACB  4C 5E AC  JMP  $AC5E
 AACE  A9 A1     LDA  #$A1
 AAD0  4C 5E AC  JMP  $AC5E
 AAD3  A9 AE     LDA  #$AE
 AAD5  4C 5E AC  JMP  $AC5E
 AAD8  A9 A2     LDA  #$A2
 AADA  4C 5E AC  JMP  $AC5E
 AADD  A9 BE     LDA  #$BE
 AADF  4C 5E AC  JMP  $AC5E
 AAE2  A9 A6     LDA  #$A6
 AAE4  4C 5E AC  JMP  $AC5E
 AAE7  A9 B6     LDA  #$B6
 AAE9  4C 5E AC  JMP  $AC5E
 AAEC  A9 AC     LDA  #$AC
 AAEE  4C 5E AC  JMP  $AC5E
 AAF1  A9 A0     LDA  #$A0
 AAF3  4C 5E AC  JMP  $AC5E
 AAF6  A9 BC     LDA  #$BC
 AAF8  4C 5E AC  JMP  $AC5E
 AAFB  A9 A4     LDA  #$A4
 AAFD  4C 5E AC  JMP  $AC5E
 AB00  A9 B4     LDA  #$B4
 AB02  4C 5E AC  JMP  $AC5E
 AB05  A9 4E     LDA  #$4E
 AB07  4C 5E AC  JMP  $AC5E
 AB0A  A9 4A     LDA  #$4A
 AB0C  4C 5E AC  JMP  $AC5E
 AB0F  A9 5E     LDA  #$5E
 AB11  4C 5E AC  JMP  $AC5E
 AB14  A9 46     LDA  #$46
 AB16  4C 5E AC  JMP  $AC5E
 AB19  A9 56     LDA  #$56
 AB1B  4C 5E AC  JMP  $AC5E
 AB1E  A9 EA     LDA  #$EA
 AB20  4C 5E AC  JMP  $AC5E
 AB23  A9 0D     LDA  #$0D
 AB25  4C 5E AC  JMP  $AC5E
 AB28  A9 09     LDA  #$09
 AB2A  4C 5E AC  JMP  $AC5E
 AB2D  A9 1D     LDA  #$1D
 AB2F  4C 5E AC  JMP  $AC5E
 AB32  A9 19     LDA  #$19
 AB34  4C 5E AC  JMP  $AC5E
 AB37  A9 05     LDA  #$05
 AB39  4C 5E AC  JMP  $AC5E
 AB3C  A9 12     LDA  #$12
 AB3E  A0 02     LDY  #$02
 AB40  4C 5E AC  JMP  $AC5E
 AB43  A9 11     LDA  #$11
 AB45  4C 5E AC  JMP  $AC5E
 AB48  A9 15     LDA  #$15
 AB4A  4C 5E AC  JMP  $AC5E
 AB4D  A9 01     LDA  #$01
 AB4F  4C 5E AC  JMP  $AC5E
 AB52  A9 48     LDA  #$48
 AB54  4C 5E AC  JMP  $AC5E
 AB57  A9 08     LDA  #$08
 AB59  4C 5E AC  JMP  $AC5E
 AB5C  A9 DA     LDA  #$DA
 AB5E  4C 5E AC  JMP  $AC5E
 AB61  A9 5A     LDA  #$5A
 AB63  4C 5E AC  JMP  $AC5E
 AB66  A9 68     LDA  #$68
 AB68  4C 5E AC  JMP  $AC5E
 AB6B  A9 28     LDA  #$28
 AB6D  4C 5E AC  JMP  $AC5E
 AB70  A9 FA     LDA  #$FA
 AB72  4C 5E AC  JMP  $AC5E
 AB75  A9 7A     LDA  #$7A
 AB77  4C 5E AC  JMP  $AC5E
 AB7A  A9 2E     LDA  #$2E
 AB7C  4C 5E AC  JMP  $AC5E
 AB7F  A9 2A     LDA  #$2A
 AB81  4C 5E AC  JMP  $AC5E
 AB84  A9 3E     LDA  #$3E
 AB86  4C 5E AC  JMP  $AC5E
 AB89  A9 26     LDA  #$26
 AB8B  4C 5E AC  JMP  $AC5E
 AB8E  A9 36     LDA  #$36
 AB90  4C 5E AC  JMP  $AC5E
 AB93  A9 6E     LDA  #$6E
 AB95  4C 5E AC  JMP  $AC5E
 AB98  A9 6A     LDA  #$6A
 AB9A  4C 5E AC  JMP  $AC5E
 AB9D  A9 7E     LDA  #$7E
 AB9F  4C 5E AC  JMP  $AC5E
 ABA2  A9 66     LDA  #$66
 ABA4  4C 5E AC  JMP  $AC5E
 ABA7  A9 76     LDA  #$76
 ABA9  4C 5E AC  JMP  $AC5E
 ABAC  A9 40     LDA  #$40
 ABAE  4C 5E AC  JMP  $AC5E
 ABB1  A9 60     LDA  #$60
 ABB3  4C 5E AC  JMP  $AC5E
 ABB6  A9 ED     LDA  #$ED
 ABB8  4C 5E AC  JMP  $AC5E
 ABBB  A9 E9     LDA  #$E9
 ABBD  4C 5E AC  JMP  $AC5E
 ABC0  A9 FD     LDA  #$FD
 ABC2  4C 5E AC  JMP  $AC5E
 ABC5  A9 F9     LDA  #$F9
 ABC7  4C 5E AC  JMP  $AC5E
 ABCA  A9 E5     LDA  #$E5
 ABCC  4C 5E AC  JMP  $AC5E
 ABCF  A9 F2     LDA  #$F2
 ABD1  4C 5E AC  JMP  $AC5E
 ABD4  A9 F1     LDA  #$F1
 ABD6  4C 5E AC  JMP  $AC5E
 ABD9  A9 F5     LDA  #$F5
 ABDB  4C 5E AC  JMP  $AC5E
 ABDE  A9 E1     LDA  #$E1
 ABE0  80 7C     BRA  $AC5E
 ABE2  A9 38     LDA  #$38
 ABE4  80 78     BRA  $AC5E
 ABE6  A9 F8     LDA  #$F8
 ABE8  80 74     BRA  $AC5E
 ABEA  A9 78     LDA  #$78
 ABEC  80 70     BRA  $AC5E
 ABEE  A9 8D     LDA  #$8D
 ABF0  80 6C     BRA  $AC5E
 ABF2  A9 9D     LDA  #$9D
 ABF4  80 68     BRA  $AC5E
 ABF6  A9 99     LDA  #$99
 ABF8  80 64     BRA  $AC5E
 ABFA  A9 85     LDA  #$85
 ABFC  80 60     BRA  $AC5E
 ABFE  A9 92     LDA  #$92
 AC00  80 5C     BRA  $AC5E
 AC02  A9 91     LDA  #$91
 AC04  80 58     BRA  $AC5E
 AC06  A9 95     LDA  #$95
 AC08  80 54     BRA  $AC5E
 AC0A  A9 81     LDA  #$81
 AC0C  80 50     BRA  $AC5E
 AC0E  A9 8E     LDA  #$8E
 AC10  80 4C     BRA  $AC5E
 AC12  A9 86     LDA  #$86
 AC14  80 48     BRA  $AC5E
 AC16  A9 96     LDA  #$96
 AC18  80 44     BRA  $AC5E
 AC1A  A9 8C     LDA  #$8C
 AC1C  80 40     BRA  $AC5E
 AC1E  A9 84     LDA  #$84
 AC20  80 3C     BRA  $AC5E
 AC22  A9 94     LDA  #$94
 AC24  80 38     BRA  $AC5E
 AC26  A9 9C     LDA  #$9C
 AC28  80 34     BRA  $AC5E
 AC2A  A9 9E     LDA  #$9E
 AC2C  80 30     BRA  $AC5E
 AC2E  A9 64     LDA  #$64
 AC30  80 2C     BRA  $AC5E
 AC32  A9 74     LDA  #$74
 AC34  80 28     BRA  $AC5E
 AC36  A9 AA     LDA  #$AA
 AC38  80 24     BRA  $AC5E
 AC3A  A9 A8     LDA  #$A8
 AC3C  80 20     BRA  $AC5E
 AC3E  A9 1C     LDA  #$1C
 AC40  80 1C     BRA  $AC5E
 AC42  A9 14     LDA  #$14
 AC44  80 18     BRA  $AC5E
 AC46  A9 0C     LDA  #$0C
 AC48  80 14     BRA  $AC5E
 AC4A  A9 04     LDA  #$04
 AC4C  80 10     BRA  $AC5E
 AC4E  A9 BA     LDA  #$BA
 AC50  80 0C     BRA  $AC5E
 AC52  A9 8A     LDA  #$8A
 AC54  80 08     BRA  $AC5E
 AC56  A9 9A     LDA  #$9A
 AC58  80 04     BRA  $AC5E
 AC5A  A9 98     LDA  #$98
 AC5C  80 00     BRA  $AC5E
 AC5E  A8        TAY  
 AC5F  20 1F DB  JSR  $DB1F
 AC62  A9 5D     LDA  #$5D
 AC64  85 26     STA  $26
 AC66  A9 AD     LDA  #$AD
 AC68  85 27     STA  $27
 AC6A  98        TYA  
 AC6B  0A        ASL  
 AC6C  90 02     BCC  $AC70
 AC6E  E6 27     INC  $27
 AC70  A8        TAY  
 AC71  B1 26     LDA  ($26), Y
 AC73  85 28     STA  $28
 AC75  C8        INY  
 AC76  B1 26     LDA  ($26), Y
 AC78  85 29     STA  $29
 AC7A  B2 28     LDA  ($28)
 AC7C  2A        ROL  
 AC7D  2A        ROL  
 AC7E  2A        ROL  
 AC7F  29 03     AND  #$03
 AC81  A8        TAY  
 AC82  88        DEY  
 AC83  F0 12     BEQ  $AC97
 AC85  20 6C DC  JSR  $DC6C
 AC88  B5 00     LDA  $00, X
 AC8A  20 1F DB  JSR  $DB1F
 AC8D  88        DEY  
 AC8E  F0 05     BEQ  $AC95
 AC90  B5 01     LDA  $01, X
 AC92  20 1F DB  JSR  $DB1F
 AC95  E8        INX  
 AC96  E8        INX  
 AC97  60        RTS  
 AC98  A0 00     LDY  #$00
 AC9A  B9 A8 AC  LDA  $ACA8, Y
 AC9D  C9 FF     CMP  #$FF
 AC9F  F0 06     BEQ  $ACA7
 ACA1  20 1F DB  JSR  $DB1F
 ACA4  C8        INY  
 ACA5  80 F3     BRA  $AC9A
 ACA7  60        RTS  
 ACA8  CA CA 95 00 74 01 FF                             |....t..         |
 ACAF  60        RTS  
 ACB0  20 62 91  JSR  $9162
 ACB3  20 40 95  JSR  $9540
 ACB6  3A        DEC  
 ACB7  3A        DEC  
 ACB8  60        RTS  
 ACB9  20 53 89  JSR  $8953
 ACBC  20 15 98  JSR  $9815
 ACBF  20 AA A4  JSR  $A4AA
 ACC2  20 A0 A0  JSR  $A0A0
 ACC5  A9 5D     LDA  #$5D
 ACC7  85 26     STA  $26
 ACC9  A9 AD     LDA  #$AD
 ACCB  85 27     STA  $27
 ACCD  A1 02     LDA  ($02, X)
 ACCF  0A        ASL  
 ACD0  90 02     BCC  $ACD4
 ACD2  E6 27     INC  $27
 ACD4  A8        TAY  
 ACD5  B1 26     LDA  ($26), Y
 ACD7  85 28     STA  $28
 ACD9  48        PHA  
 ACDA  C8        INY  
 ACDB  B1 26     LDA  ($26), Y
 ACDD  85 29     STA  $29
 ACDF  48        PHA  
 ACE0  B2 28     LDA  ($28)
 ACE2  A8        TAY  
 ACE3  10 38     BPL  $AD1D
 ACE5  20 23 A7  JSR  $A723
 ACE8  F6 04     INC  $04, X
 ACEA  D0 02     BNE  $ACEE
 ACEC  F6 05     INC  $05, X
 ACEE  B5 02     LDA  $02, X
 ACF0  D0 02     BNE  $ACF4
 ACF2  D6 03     DEC  $03, X
 ACF4  D6 02     DEC  $02, X
 ACF6  A1 04     LDA  ($04, X)
 ACF8  95 00     STA  $00, X
 ACFA  98        TYA  
 ACFB  2A        ROL  
 ACFC  10 12     BPL  $AD10
 ACFE  F6 04     INC  $04, X
 AD00  D0 02     BNE  $AD04
 AD02  F6 05     INC  $05, X
 AD04  B5 02     LDA  $02, X
 AD06  D0 02     BNE  $AD0A
 AD08  D6 03     DEC  $03, X
 AD0A  D6 02     DEC  $02, X
 AD0C  A1 04     LDA  ($04, X)
 AD0E  95 01     STA  $01, X
 AD10  CA        DEX  
 AD11  CA        DEX  
 AD12  A9 05     LDA  #$05
 AD14  95 00     STA  $00, X
 AD16  74 01     STZ  $01, X
 AD18  20 B6 A4  JSR  $A4B6
 AD1B  80 0B     BRA  $AD28
 AD1D  CA        DEX  
 AD1E  CA        DEX  
 AD1F  A9 05     LDA  #$05
 AD21  95 00     STA  $00, X
 AD23  74 01     STZ  $01, X
 AD25  20 A6 A0  JSR  $A0A6
 AD28  20 A0 A0  JSR  $A0A0
 AD2B  CA        DEX  
 AD2C  CA        DEX  
 AD2D  68        PLA  
 AD2E  95 01     STA  $01, X
 AD30  68        PLA  
 AD31  95 00     STA  $00, X
 AD33  20 3F 89  JSR  $893F
 AD36  74 01     STZ  $01, X
 AD38  B5 00     LDA  $00, X
 AD3A  29 07     AND  #$07
 AD3C  95 00     STA  $00, X
 AD3E  20 7F A4  JSR  $A47F
 AD41  20 53 89  JSR  $8953
 AD44  F6 02     INC  $02, X
 AD46  D0 02     BNE  $AD4A
 AD48  F6 03     INC  $03, X
 AD4A  20 93 97  JSR  $9793
 AD4D  B5 00     LDA  $00, X
 AD4F  15 01     ORA  $01, X
 AD51  F0 07     BEQ  $AD5A
 AD53  B5 01     LDA  $01, X
 AD55  30 03     BMI  $AD5A
 AD57  4C BC AC  JMP  $ACBC
 AD5A  4C 2C A3  JMP  $A32C
 AD5D  5D AF 61 AF F5 B3 F5 B3 69 AF 6F AF 75 AF F5 B3  |].a.....i.o.u...|
 AD6D  7B AF 7F AF 85 AF F5 B3 8B AF 8F AF 93 AF 97 AF  |{...............|
 AD7D  9C AF A0 AF A8 AF F5 B3 AF AF B5 AF BC AF C3 AF  |................|
 AD8D  CA AF CE AF D4 AF F5 B3 DA AF DE AF F5 B3 E4 AF  |................|
 AD9D  EA AF EE AF F5 B3 F5 B3 F6 AF FC AF 02 B0 08 B0  |................|
 ADAD  0F B0 13 B0 19 B0 F5 B3 1F B0 23 B0 28 B0 2C B0  |..........#.(.,.|
 ADBD  31 B0 35 B0 3D B0 F5 B3 44 B0 4C B0 53 B0 5A B0  |1.5.=...D.L.S.Z.|
 ADCD  61 B0 65 B0 6B B0 F5 B3 71 B0 77 B0 7D B0 97 AF  |a.e.k...q.w.}...|
 ADDD  88 B0 8C B0 F5 B3 F5 B3 F5 B3 94 B0 9A B0 A0 B0  |................|
 ADED  A7 B0 AB B0 B1 B0 F5 B3 B7 B0 BB B0 BF B0 C3 B0  |................|
 ADFD  C8 B0 CC B0 D4 B0 F5 B3 F5 B3 DB B0 E2 B0 E9 B0  |................|
 AE0D  F0 B0 F4 B0 FA B0 F5 B3 F5 B3 F5 B3 04 B1 0A B1  |................|
 AE1D  0F B1 13 B1 F5 B3 F5 B3 1B B1 21 B1 27 B1 2D B1  |..........!.'.-.|
 AE2D  34 B1 38 B1 3E B1 F5 B3 44 B1 4A B1 4E B1 52 B1  |4.8.>...D.J.N.R.|
 AE3D  57 B1 5B B1 63 B1 F5 B3 6A B1 71 B1 78 B1 7F B1  |W.[.c...j.q.x...|
 AE4D  86 B1 8A B1 90 B1 F5 B3 94 B1 9B B1 A1 B1 A7 B1  |................|
 AE5D  AC B1 B0 B1 F5 B3 F5 B3 B8 B1 BE B1 C4 B1 F5 B3  |................|
 AE6D  CA B1 CE B1 D4 B1 F5 B3 D8 B1 DC B1 E0 B1 E4 B1  |................|
 AE7D  E9 B1 ED B1 F5 B1 F5 B3 FC B1 03 B2 0A B2 11 B2  |................|
 AE8D  18 B2 1C B2 22 B2 F5 B3 26 B2 2A B2 30 B2 36 B2  |...."...&.*.0.6.|
 AE9D  3B B2 41 B2 49 B2 F5 B3 4F B2 55 B2 5B B2 61 B2  |;.A.I...O.U.[.a.|
 AEAD  68 B2 6C B2 72 B2 F5 B3 76 B2 7A B2 7E B2 82 B2  |h.l.r...v.z.~...|
 AEBD  87 B2 8B B2 93 B2 F5 B3 9A B2 A1 B2 A8 B2 AF B2  |................|
 AECD  B6 B2 BA B2 C0 B2 F5 B3 C4 B2 CA B2 D0 B2 D6 B2  |................|
 AEDD  DB B2 E1 B2 F5 B3 F5 B3 E9 B2 EF B2 F5 B2 FB B2  |................|
 AEED  02 B3 06 B3 0C B3 F5 B3 10 B3 14 B3 18 B3 1C B3  |................|
 AEFD  21 B3 25 B3 2D B3 F5 B3 F5 B3 34 B3 3B B3 42 B3  |!.%.-.....4.;.B.|
 AF0D  49 B3 4D B3 53 B3 F5 B3 F5 B3 57 B3 5D B3 63 B3  |I.M.S.....W.].c.|
 AF1D  68 B3 6E B3 F5 B3 F5 B3 76 B3 7C B3 82 B3 88 B3  |h.n.....v.|.....|
 AF2D  8F B3 93 B3 99 B3 F5 B3 9D B3 A1 B3 A5 B3 A9 B3  |................|
 AF3D  AE B3 B2 B3 BA B3 F5 B3 F5 B3 C1 B3 C8 B3 CF B3  |................|
 AF4D  D6 B3 DA B3 E0 B3 F5 B3 F5 B3 E4 B3 EA B3 F0 B3  |................|
 AF5D  83 62 72 6B 87 6F 72 61 2E 7A 78 69 85 74 73 62  |.brk.ora.zxi.tsb|
 AF6D  2E 7A 85 6F 72 64 2E 7A 85 61 73 6C 2E 7A 43 70  |.z.ord.z.asl.zCp|
 AF7D  68 70 85 6F 72 61 2E 23 45 61 73 6C 2E 61 C3 74  |hp.ora.#Easl.a.t|
 AF8D  73 62 C3 6F 72 61 C3 61 73 6C C4 62 62 72 30 83  |sb.ora.asl.bbr0.|
 AF9D  62 70 6C 87 6F 72 61 2E 7A 69 79 86 6F 72 61 2E  |bpl.ora.ziy.ora.|
 AFAD  7A 69 85 74 72 62 2E 7A 86 6F 72 61 2E 7A 78 86  |zi.trb.z.ora.zx.|
 AFBD  61 73 6C 2E 7A 78 86 72 6D 62 31 2E 7A 43 63 6C  |asl.zx.rmb1.zCcl|
 AFCD  63 C5 6F 72 61 2E 79 45 69 6E 63 2E 61 C3 74 72  |c.ora.yEinc.a.tr|
 AFDD  62 C5 6F 72 61 2E 78 C5 61 73 6C 2E 78 C3 6A 73  |b.ora.x.asl.x.js|
 AFED  72 87 61 6E 64 2E 7A 78 69 85 62 69 74 2E 7A 85  |r.and.zxi.bit.z.|
 AFFD  61 6E 64 2E 7A 85 72 6F 6C 2E 7A 86 72 6D 62 32  |and.z.rol.z.rmb2|
 B00D  2E 7A 43 70 6C 70 85 61 6E 64 2E 23 45 72 6F 6C  |.zCplp.and.#Erol|
 B01D  2E 61 C3 62 69 74 C4 61 6E 64 2E C3 72 6F 6C C4  |.a.bit.and..rol.|
 B02D  62 62 72 32 83 62 6D 69 87 61 6E 64 2E 7A 69 79  |bbr2.bmi.and.ziy|
 B03D  86 61 6E 64 2E 7A 69 87 62 69 74 2E 7A 78 69 86  |.and.zi.bit.zxi.|
 B04D  61 6E 64 2E 7A 78 86 72 6F 6C 2E 7A 78 86 72 6D  |and.zx.rol.zx.rm|
 B05D  62 33 2E 7A 43 73 65 63 C5 61 6E 64 2E 79 45 64  |b3.zCsec.and.yEd|
 B06D  65 63 2E 61 C5 62 69 74 2E 78 C5 61 6E 64 2E 78  |ec.a.bit.x.and.x|
 B07D  C5 72 6F 6C 2E 78 C4 62 62 72 33 43 72 74 69 87  |.rol.x.bbr3Crti.|
 B08D  65 6F 72 2E 7A 78 69 85 65 6F 72 2E 7A 85 6C 73  |eor.zxi.eor.z.ls|
 B09D  72 2E 7A 86 72 62 6D 34 2E 7A 43 70 68 61 85 65  |r.z.rbm4.zCpha.e|
 B0AD  6F 72 2E 23 45 6C 73 72 2E 61 C3 6A 6D 70 C3 65  |or.#Elsr.a.jmp.e|
 B0BD  6F 72 C3 6C 73 72 C4 62 62 72 34 83 62 76 63 87  |or.lsr.bbr4.bvc.|
 B0CD  65 6F 72 2E 7A 69 79 86 65 6F 72 2E 7A 69 86 65  |eor.ziy.eor.zi.e|
 B0DD  6F 72 2E 7A 78 86 6C 73 72 2E 7A 78 86 72 62 6D  |or.zx.lsr.zx.rbm|
 B0ED  35 2E 7A 43 63 6C 69 C5 65 6F 72 2E 79 43 70 68  |5.zCcli.eor.yCph|
 B0FD  79 C5 65 6F 72 2E 78 C5 6C 73 72 2E 78 C4 62 62  |y.eor.x.lsr.x.bb|
 B10D  72 35 43 72 74 73 87 61 64 63 2E 7A 78 69 85 73  |r5Crts.adc.zxi.s|
 B11D  74 7A 2E 7A 85 61 64 63 2E 7A 85 72 6F 72 2E 7A  |tz.z.adc.z.ror.z|
 B12D  86 72 6D 62 36 2E 7A 43 70 6C 61 85 61 64 63 2E  |.rmb6.zCpla.adc.|
 B13D  23 45 72 6F 72 2E 61 C5 6A 6D 70 2E 69 C3 61 64  |#Eror.a.jmp.i.ad|
 B14D  63 C3 72 6F 72 C4 62 62 72 36 83 62 76 73 87 61  |c.ror.bbr6.bvs.a|
 B15D  64 63 2E 7A 69 79 86 61 64 63 2E 7A 69 86 73 74  |dc.ziy.adc.zi.st|
 B16D  7A 2E 7A 78 86 61 64 63 2E 7A 78 86 72 6F 72 2E  |z.zx.adc.zx.ror.|
 B17D  7A 78 86 72 6D 62 37 2E 7A 43 73 65 69 C5 61 64  |zx.rmb7.zCsei.ad|
 B18D  63 2E 79 43 70 6C 79 C6 6A 6D 70 2E 78 69 C5 61  |c.yCply.jmp.xi.a|
 B19D  64 63 2E 78 C5 72 6F 72 2E 78 C4 62 62 72 37 83  |dc.x.ror.x.bbr7.|
 B1AD  62 72 61 87 73 74 61 2E 7A 78 69 85 73 74 79 2E  |bra.sta.zxi.sty.|
 B1BD  7A 85 73 74 61 2E 7A 85 73 74 78 2E 7A 43 64 65  |z.sta.z.stx.zCde|
 B1CD  79 85 62 69 74 2E 23 43 74 78 61 C3 73 74 79 C3  |y.bit.#Ctxa.sty.|
 B1DD  73 74 61 C3 73 74 78 C4 62 62 73 30 83 62 63 63  |sta.stx.bbs0.bcc|
 B1ED  87 73 74 61 2E 7A 69 79 86 73 74 61 2E 7A 69 86  |.sta.ziy.sta.zi.|
 B1FD  73 74 79 2E 7A 78 86 73 74 61 2E 7A 78 86 73 74  |sty.zx.sta.zx.st|
 B20D  78 2E 7A 79 86 73 6D 62 31 2E 7A 43 74 79 61 C5  |x.zy.smb1.zCtya.|
 B21D  73 74 61 2E 79 43 74 78 73 C3 73 74 7A C5 73 74  |sta.yCtxs.stz.st|
 B22D  61 2E 78 C5 73 74 7A 2E 78 C4 62 62 73 31 85 6C  |a.x.stz.x.bbs1.l|
 B23D  64 79 2E 23 87 6C 64 61 2E 7A 78 69 85 6C 64 78  |dy.#.lda.zxi.ldx|
 B24D  2E 23 85 6C 64 79 2E 7A 85 6C 64 61 2E 7A 85 6C  |.#.ldy.z.lda.z.l|
 B25D  64 78 2E 7A 86 73 6D 62 32 2E 7A 43 74 61 79 85  |dx.z.smb2.zCtay.|
 B26D  6C 64 61 2E 23 43 74 61 78 C3 6C 64 79 C3 6C 64  |lda.#Ctax.ldy.ld|
 B27D  61 C3 6C 64 78 C4 62 62 73 32 83 62 63 73 87 6C  |a.ldx.bbs2.bcs.l|
 B28D  64 61 2E 7A 69 79 86 6C 64 61 2E 7A 69 86 6C 64  |da.ziy.lda.zi.ld|
 B29D  79 2E 7A 78 86 6C 64 61 2E 7A 78 86 6C 64 78 2E  |y.zx.lda.zx.ldx.|
 B2AD  7A 79 86 73 6D 62 33 2E 7A 43 63 6C 76 C5 6C 64  |zy.smb3.zCclv.ld|
 B2BD  61 2E 79 43 74 73 78 C5 6C 64 79 2E 78 C5 6C 64  |a.yCtsx.ldy.x.ld|
 B2CD  61 2E 78 C5 6C 64 78 2E 79 C4 62 62 73 34 85 63  |a.x.ldx.y.bbs4.c|
 B2DD  70 79 2E 23 87 63 6D 70 2E 7A 78 69 85 63 70 79  |py.#.cmp.zxi.cpy|
 B2ED  2E 7A 85 63 6D 70 2E 7A 85 64 65 63 2E 7A 86 73  |.z.cmp.z.dec.z.s|
 B2FD  6D 62 34 2E 7A 43 69 6E 79 85 63 6D 70 2E 23 43  |mb4.zCiny.cmp.#C|
 B30D  64 65 78 C3 63 70 79 C3 63 6D 70 C3 64 65 63 C4  |dex.cpy.cmp.dec.|
 B31D  62 62 73 34 83 62 6E 65 87 63 6D 70 2E 7A 69 79  |bbs4.bne.cmp.ziy|
 B32D  86 63 6D 70 2E 7A 69 86 63 6D 70 2E 7A 78 86 64  |.cmp.zi.cmp.zx.d|
 B33D  65 63 2E 7A 78 86 73 6D 62 35 2E 7A 43 63 6C 64  |ec.zx.smb5.zCcld|
 B34D  C5 63 6D 70 2E 79 43 70 68 78 C5 63 6D 70 2E 78  |.cmp.yCphx.cmp.x|
 B35D  C5 64 65 63 2E 78 C4 62 62 73 35 85 63 70 78 2E  |.dec.x.bbs5.cpx.|
 B36D  23 87 73 62 63 2E 7A 78 69 85 63 70 78 2E 7A 85  |#.sbc.zxi.cpx.z.|
 B37D  73 62 63 2E 7A 85 69 6E 63 2E 7A 86 73 6D 62 36  |sbc.z.inc.z.smb6|
 B38D  2E 7A 43 69 6E 78 85 73 62 63 2E 23 43 6E 6F 70  |.zCinx.sbc.#Cnop|
 B39D  C3 63 70 78 C3 73 62 63 C3 69 6E 63 C4 62 62 73  |.cpx.sbc.inc.bbs|
 B3AD  36 83 62 65 71 87 73 62 63 2E 7A 69 79 86 73 62  |6.beq.sbc.ziy.sb|
 B3BD  63 2E 7A 69 86 73 62 63 2E 7A 78 86 69 6E 63 2E  |c.zi.sbc.zx.inc.|
 B3CD  7A 78 86 73 6D 62 37 2E 7A 43 73 65 64 C5 73 62  |zx.smb7.zCsed.sb|
 B3DD  63 2E 79 43 70 6C 78 C5 73 62 63 2E 78 C5 69 6E  |c.yCplx.sbc.x.in|
 B3ED  63 2E 78 C4 62 62 73 37 01 3F                    |c.x.bbs7.?      |
 B3F7  64 2E     STZ  $2E
 B3F9  64 2F     STZ  $2F
 B3FB  64 30     STZ  $30
 B3FD  64 31     STZ  $31
 B3FF  64 32     STZ  $32
 B401  20 23 A7  JSR  $A723
 B404  20 23 A7  JSR  $A723
 B407  20 53 89  JSR  $8953
 B40A  A9 81     LDA  #$81
 B40C  14 32     TRB  $32
 B40E  20 D5 B8  JSR  $B8D5
 B411  A5 0A     LDA  $0A
 B413  D0 1F     BNE  $B434
 B415  CA        DEX  
 B416  CA        DEX  
 B417  A5 30     LDA  $30
 B419  95 00     STA  $00, X
 B41B  A5 31     LDA  $31
 B41D  95 01     STA  $01, X
 B41F  A9 80     LDA  #$80
 B421  04 32     TSB  $32
 B423  20 9F 97  JSR  $979F
 B426  20 F1 B8  JSR  $B8F1
 B429  B0 03     BCS  $B42E
 B42B  4C C5 B8  JMP  $B8C5
 B42E  20 23 A7  JSR  $A723
 B431  4C FF B4  JMP  $B4FF
 B434  20 23 A7  JSR  $A723
 B437  20 23 A7  JSR  $A723
 B43A  B2 08     LDA  ($08)
 B43C  C9 2E     CMP  #$2E
 B43E  D0 3A     BNE  $B47A
 B440  20 E6 B8  JSR  $B8E6
 B443  A5 30     LDA  $30
 B445  95 02     STA  $02, X
 B447  A5 31     LDA  $31
 B449  95 03     STA  $03, X
 B44B  A9 80     LDA  #$80
 B44D  04 32     TSB  $32
 B44F  A5 0A     LDA  $0A
 B451  3A        DEC  
 B452  D0 03     BNE  $B457
 B454  4C FF B4  JMP  $B4FF
 B457  CA        DEX  
 B458  CA        DEX  
 B459  CA        DEX  
 B45A  CA        DEX  
 B45B  A5 08     LDA  $08
 B45D  95 02     STA  $02, X
 B45F  A5 09     LDA  $09
 B461  95 03     STA  $03, X
 B463  A5 0A     LDA  $0A
 B465  95 00     STA  $00, X
 B467  A5 0B     LDA  $0B
 B469  95 01     STA  $01, X
 B46B  20 93 97  JSR  $9793
 B46E  20 2A A1  JSR  $A12A
 B471  20 9F 97  JSR  $979F
 B474  20 2A A1  JSR  $A12A
 B477  4C 57 B5  JMP  $B557
 B47A  B2 08     LDA  ($08)
 B47C  C9 24     CMP  #$24
 B47E  D0 1C     BNE  $B49C
 B480  20 E6 B8  JSR  $B8E6
 B483  E8        INX  
 B484  E8        INX  
 B485  20 13 B9  JSR  $B913
 B488  20 2A A1  JSR  $A12A
 B48B  A9 80     LDA  #$80
 B48D  04 32     TSB  $32
 B48F  A5 0A     LDA  $0A
 B491  3A        DEC  
 B492  D0 03     BNE  $B497
 B494  4C FF B4  JMP  $B4FF
 B497  A0 01     LDY  #$01
 B499  4C D3 B5  JMP  $B5D3
 B49C  B2 08     LDA  ($08)
 B49E  C9 25     CMP  #$25
 B4A0  F0 04     BEQ  $B4A6
 B4A2  C9 2C     CMP  #$2C
 B4A4  D0 17     BNE  $B4BD
 B4A6  20 E6 B8  JSR  $B8E6
 B4A9  A9 01     LDA  #$01
 B4AB  95 02     STA  $02, X
 B4AD  74 03     STZ  $03, X
 B4AF  E8        INX  
 B4B0  E8        INX  
 B4B1  20 13 B9  JSR  $B913
 B4B4  A9 80     LDA  #$80
 B4B6  04 32     TSB  $32
 B4B8  A0 01     LDY  #$01
 B4BA  4C D3 B5  JMP  $B5D3
 B4BD  B2 08     LDA  ($08)
 B4BF  C9 3B     CMP  #$3B
 B4C1  D0 0D     BNE  $B4D0
 B4C3  20 E6 B8  JSR  $B8E6
 B4C6  A5 30     LDA  $30
 B4C8  95 02     STA  $02, X
 B4CA  A5 31     LDA  $31
 B4CC  95 03     STA  $03, X
 B4CE  80 DF     BRA  $B4AF
 B4D0  20 23 A7  JSR  $A723
 B4D3  20 23 A7  JSR  $A723
 B4D6  CA        DEX  
 B4D7  CA        DEX  
 B4D8  CA        DEX  
 B4D9  CA        DEX  
 B4DA  A5 08     LDA  $08
 B4DC  95 02     STA  $02, X
 B4DE  A5 09     LDA  $09
 B4E0  95 03     STA  $03, X
 B4E2  A5 0A     LDA  $0A
 B4E4  95 00     STA  $00, X
 B4E6  A5 0B     LDA  $0B
 B4E8  95 01     STA  $01, X
 B4EA  20 39 A2  JSR  $A239
 B4ED  B5 00     LDA  $00, X
 B4EF  15 01     ORA  $01, X
 B4F1  D0 24     BNE  $B517
 B4F3  E8        INX  
 B4F4  E8        INX  
 B4F5  E8        INX  
 B4F6  E8        INX  
 B4F7  20 70 8A  JSR  $8A70
 B4FA  20 5E 96  JSR  $965E
 B4FD  E8        INX  
 B4FE  E8        INX  
 B4FF  20 2A A1  JSR  $A12A
 B502  20 F1 B8  JSR  $B8F1
 B505  B0 03     BCS  $B50A
 B507  4C C3 B8  JMP  $B8C3
 B50A  20 2A A1  JSR  $A12A
 B50D  20 80 B9  JSR  $B980
 B510  A9 80     LDA  #$80
 B512  04 32     TSB  $32
 B514  4C AE B7  JMP  $B7AE
 B517  20 9F 8D  JSR  $8D9F
 B51A  CA        DEX  
 B51B  CA        DEX  
 B51C  A5 0A     LDA  $0A
 B51E  95 00     STA  $00, X
 B520  A5 0B     LDA  $0B
 B522  95 01     STA  $01, X
 B524  20 BE 8E  JSR  $8EBE
 B527  B5 00     LDA  $00, X
 B529  15 01     ORA  $01, X
 B52B  F0 0E     BEQ  $B53B
 B52D  8A        TXA  
 B52E  18        CLC  
 B52F  69 0A     ADC  #$0A
 B531  AA        TAX  
 B532  A9 80     LDA  #$80
 B534  14 32     TRB  $32
 B536  A0 00     LDY  #$00
 B538  4C D3 B5  JMP  $B5D3
 B53B  E8        INX  
 B53C  E8        INX  
 B53D  20 EC A2  JSR  $A2EC
 B540  20 5E 96  JSR  $965E
 B543  20 70 8A  JSR  $8A70
 B546  B5 00     LDA  $00, X
 B548  95 06     STA  $06, X
 B54A  B5 01     LDA  $01, X
 B54C  95 07     STA  $07, X
 B54E  E8        INX  
 B54F  E8        INX  
 B550  20 14 9A  JSR  $9A14
 B553  A9 80     LDA  #$80
 B555  04 32     TSB  $32
 B557  A1 02     LDA  ($02, X)
 B559  C9 2C     CMP  #$2C
 B55B  F0 0D     BEQ  $B56A
 B55D  38        SEC  
 B55E  A5 0A     LDA  $0A
 B560  F5 00     SBC  $00, X
 B562  A8        TAY  
 B563  E8        INX  
 B564  E8        INX  
 B565  E8        INX  
 B566  E8        INX  
 B567  4C D3 B5  JMP  $B5D3
 B56A  F6 02     INC  $02, X
 B56C  D0 02     BNE  $B570
 B56E  F6 03     INC  $03, X
 B570  B5 01     LDA  $01, X
 B572  F0 02     BEQ  $B576
 B574  D6 01     DEC  $01, X
 B576  D6 00     DEC  $00, X
 B578  A1 02     LDA  ($02, X)
 B57A  C9 24     CMP  #$24
 B57C  D0 14     BNE  $B592
 B57E  38        SEC  
 B57F  A5 0A     LDA  $0A
 B581  F5 02     SBC  $02, X
 B583  A8        TAY  
 B584  C8        INY  
 B585  5A        PHY  
 B586  8A        TXA  
 B587  18        CLC  
 B588  69 06     ADC  #$06
 B58A  AA        TAX  
 B58B  20 13 B9  JSR  $B913
 B58E  7A        PLY  
 B58F  4C D3 B5  JMP  $B5D3
 B592  20 EC A2  JSR  $A2EC
 B595  20 23 A7  JSR  $A723
 B598  20 23 A7  JSR  $A723
 B59B  20 D9 9A  JSR  $9AD9
 B59E  20 14 9A  JSR  $9A14
 B5A1  20 9F 8D  JSR  $8D9F
 B5A4  20 EC A2  JSR  $A2EC
 B5A7  20 39 A2  JSR  $A239
 B5AA  20 9F 8D  JSR  $8D9F
 B5AD  20 14 9A  JSR  $9A14
 B5B0  20 BE 8E  JSR  $8EBE
 B5B3  B5 00     LDA  $00, X
 B5B5  15 01     ORA  $01, X
 B5B7  F0 08     BEQ  $B5C1
 B5B9  8A        TXA  
 B5BA  18        CLC  
 B5BB  69 0C     ADC  #$0C
 B5BD  AA        TAX  
 B5BE  4C C7 B8  JMP  $B8C7
 B5C1  E8        INX  
 B5C2  E8        INX  
 B5C3  38        SEC  
 B5C4  A5 0A     LDA  $0A
 B5C6  F5 00     SBC  $00, X
 B5C8  48        PHA  
 B5C9  20 2C A3  JSR  $A32C
 B5CC  20 70 8A  JSR  $8A70
 B5CF  20 32 96  JSR  $9632
 B5D2  7A        PLY  
 B5D3  B1 08     LDA  ($08), Y
 B5D5  85 24     STA  $24
 B5D7  DA        PHX  
 B5D8  A2 00     LDX  #$00
 B5DA  BD AB B9  LDA  $B9AB, X
 B5DD  F0 07     BEQ  $B5E6
 B5DF  C5 24     CMP  $24
 B5E1  F0 07     BEQ  $B5EA
 B5E3  E8        INX  
 B5E4  80 F4     BRA  $B5DA
 B5E6  FA        PLX  
 B5E7  4C C3 B8  JMP  $B8C3
 B5EA  8A        TXA  
 B5EB  0A        ASL  
 B5EC  AA        TAX  
 B5ED  7C B6 B9  JMP  ($B9B6, X)
 B5F0  E8        INX  
 B5F1  E8        INX  
 B5F2  E8        INX  
 B5F3  E8        INX  
 B5F4  4C 0A B4  JMP  $B40A
 B5F7  64 0A     STZ  $0A
 B5F9  64 0B     STZ  $0B
 B5FB  20 2C A3  JSR  $A32C
 B5FE  60        RTS  
 B5FF  FA        PLX  
 B600  E8        INX  
 B601  E8        INX  
 B602  24 32     BIT  $32
 B604  30 08     BMI  $B60E
 B606  A5 30     LDA  $30
 B608  95 00     STA  $00, X
 B60A  A5 31     LDA  $31
 B60C  95 01     STA  $01, X
 B60E  20 49 B9  JSR  $B949
 B611  20 53 89  JSR  $8953
 B614  20 D5 B8  JSR  $B8D5
 B617  B2 08     LDA  ($08)
 B619  C9 2E     CMP  #$2E
 B61B  D0 16     BNE  $B633
 B61D  A4 0A     LDY  $0A
 B61F  C0 01     CPY  #$01
 B621  D0 10     BNE  $B633
 B623  A4 0B     LDY  $0B
 B625  D0 0C     BNE  $B633
 B627  E8        INX  
 B628  E8        INX  
 B629  A9 40     LDA  #$40
 B62B  04 32     TSB  $32
 B62D  20 53 89  JSR  $8953
 B630  4C 0A B4  JMP  $B40A
 B633  20 9F 8D  JSR  $8D9F
 B636  20 62 91  JSR  $9162
 B639  20 2A A1  JSR  $A12A
 B63C  20 70 8F  JSR  $8F70
 B63F  20 5E 87  JSR  $875E
 B642  20 09 A3  JSR  $A309
 B645  20 2A A1  JSR  $A12A
 B648  20 09 A1  JSR  $A109
 B64B  20 62 91  JSR  $9162
 B64E  A5 00     LDA  $00
 B650  18        CLC  
 B651  69 04     ADC  #$04
 B653  85 00     STA  $00
 B655  90 02     BCC  $B659
 B657  E6 01     INC  $01
 B659  E6 30     INC  $30
 B65B  D0 02     BNE  $B65F
 B65D  E6 31     INC  $31
 B65F  20 62 91  JSR  $9162
 B662  20 9F 8D  JSR  $8D9F
 B665  CA        DEX  
 B666  CA        DEX  
 B667  A5 08     LDA  $08
 B669  95 00     STA  $00, X
 B66B  A5 09     LDA  $09
 B66D  95 01     STA  $01, X
 B66F  20 2A A1  JSR  $A12A
 B672  CA        DEX  
 B673  CA        DEX  
 B674  A5 0A     LDA  $0A
 B676  95 00     STA  $00, X
 B678  A5 0B     LDA  $0B
 B67A  95 01     STA  $01, X
 B67C  20 B2 95  JSR  $95B2
 B67F  18        CLC  
 B680  A5 00     LDA  $00
 B682  65 0A     ADC  $0A
 B684  85 00     STA  $00
 B686  90 06     BCC  $B68E
 B688  A5 01     LDA  $01
 B68A  65 0B     ADC  $0B
 B68C  85 01     STA  $01
 B68E  20 15 98  JSR  $9815
 B691  20 09 A1  JSR  $A109
 B694  20 9F 97  JSR  $979F
 B697  20 9F 97  JSR  $979F
 B69A  20 9F 8D  JSR  $8D9F
 B69D  A5 0A     LDA  $0A
 B69F  95 02     STA  $02, X
 B6A1  A5 0B     LDA  $0B
 B6A3  95 03     STA  $03, X
 B6A5  20 09 A1  JSR  $A109
 B6A8  20 53 89  JSR  $8953
 B6AB  4C 14 B6  JMP  $B614
 B6AE  FA        PLX  
 B6AF  20 E6 B8  JSR  $B8E6
 B6B2  20 3B B9  JSR  $B93B
 B6B5  B5 00     LDA  $00, X
 B6B7  15 01     ORA  $01, X
 B6B9  D0 08     BNE  $B6C3
 B6BB  20 15 98  JSR  $9815
 B6BE  20 00 B7  JSR  $B700
 B6C1  80 33     BRA  $B6F6
 B6C3  20 F1 B8  JSR  $B8F1
 B6C6  B0 03     BCS  $B6CB
 B6C8  4C C3 B8  JMP  $B8C3
 B6CB  20 34 A3  JSR  $A334
 B6CE  20 4D 91  JSR  $914D
 B6D1  B5 00     LDA  $00, X
 B6D3  15 01     ORA  $01, X
 B6D5  D0 0D     BNE  $B6E4
 B6D7  E8        INX  
 B6D8  E8        INX  
 B6D9  20 9F 8D  JSR  $8D9F
 B6DC  20 00 B7  JSR  $B700
 B6DF  20 93 97  JSR  $9793
 B6E2  80 E7     BRA  $B6CB
 B6E4  E8        INX  
 B6E5  E8        INX  
 B6E6  B5 02     LDA  $02, X
 B6E8  D0 02     BNE  $B6EC
 B6EA  D6 03     DEC  $03, X
 B6EC  D6 02     DEC  $02, X
 B6EE  B5 02     LDA  $02, X
 B6F0  85 30     STA  $30
 B6F2  B5 03     LDA  $03, X
 B6F4  85 31     STA  $31
 B6F6  A9 40     LDA  #$40
 B6F8  04 32     TSB  $32
 B6FA  20 53 89  JSR  $8953
 B6FD  4C F0 B5  JMP  $B5F0
 B700  20 9F 8D  JSR  $8D9F
 B703  20 49 B9  JSR  $B949
 B706  20 70 8F  JSR  $8F70
 B709  20 2A A1  JSR  $A12A
 B70C  20 93 97  JSR  $9793
 B70F  20 49 B9  JSR  $B949
 B712  20 09 A1  JSR  $A109
 B715  60        RTS  
 B716  FA        PLX  
 B717  A5 2E     LDA  $2E
 B719  05 2F     ORA  $2F
 B71B  D0 08     BNE  $B725
 B71D  CA        DEX  
 B71E  CA        DEX  
 B71F  74 00     STZ  $00, X
 B721  74 01     STZ  $01, X
 B723  80 21     BRA  $B746
 B725  20 3B B9  JSR  $B93B
 B728  24 32     BIT  $32
 B72A  30 0C     BMI  $B738
 B72C  CA        DEX  
 B72D  CA        DEX  
 B72E  A5 30     LDA  $30
 B730  95 00     STA  $00, X
 B732  A5 31     LDA  $31
 B734  95 01     STA  $01, X
 B736  80 0E     BRA  $B746
 B738  B5 00     LDA  $00, X
 B73A  15 01     ORA  $01, X
 B73C  D0 05     BNE  $B743
 B73E  20 15 98  JSR  $9815
 B741  80 03     BRA  $B746
 B743  20 9F 8D  JSR  $8D9F
 B746  20 53 89  JSR  $8953
 B749  20 AA A4  JSR  $A4AA
 B74C  20 53 89  JSR  $8953
 B74F  4C F0 B5  JMP  $B5F0
 B752  FA        PLX  
 B753  24 32     BIT  $32
 B755  30 17     BMI  $B76E
 B757  20 53 89  JSR  $8953
 B75A  20 EC A2  JSR  $A2EC
 B75D  20 D9 9A  JSR  $9AD9
 B760  20 9F 8D  JSR  $8D9F
 B763  20 AA A4  JSR  $A4AA
 B766  20 5E 96  JSR  $965E
 B769  20 14 9A  JSR  $9A14
 B76C  80 11     BRA  $B77F
 B76E  20 15 98  JSR  $9815
 B771  20 53 89  JSR  $8953
 B774  20 AA A4  JSR  $A4AA
 B777  B5 02     LDA  $02, X
 B779  95 06     STA  $06, X
 B77B  B5 03     LDA  $03, X
 B77D  95 07     STA  $07, X
 B77F  20 53 89  JSR  $8953
 B782  4C F0 B5  JMP  $B5F0
 B785  FA        PLX  
 B786  E8        INX  
 B787  E8        INX  
 B788  24 32     BIT  $32
 B78A  30 08     BMI  $B794
 B78C  A5 30     LDA  $30
 B78E  95 00     STA  $00, X
 B790  A5 31     LDA  $31
 B792  95 01     STA  $01, X
 B794  B5 00     LDA  $00, X
 B796  15 01     ORA  $01, X
 B798  F0 09     BEQ  $B7A3
 B79A  20 93 97  JSR  $9793
 B79D  20 23 A7  JSR  $A723
 B7A0  20 08 95  JSR  $9508
 B7A3  4C 0E B6  JMP  $B60E
 B7A6  FA        PLX  
 B7A7  A9 01     LDA  #$01
 B7A9  04 32     TSB  $32
 B7AB  80 05     BRA  $B7B2
 B7AD  FA        PLX  
 B7AE  A9 01     LDA  #$01
 B7B0  14 32     TRB  $32
 B7B2  20 E6 B8  JSR  $B8E6
 B7B5  20 3B B9  JSR  $B93B
 B7B8  20 53 89  JSR  $8953
 B7BB  B5 00     LDA  $00, X
 B7BD  15 01     ORA  $01, X
 B7BF  D0 08     BNE  $B7C9
 B7C1  20 15 98  JSR  $9815
 B7C4  20 EA B7  JSR  $B7EA
 B7C7  80 1E     BRA  $B7E7
 B7C9  20 34 A3  JSR  $A334
 B7CC  20 4D 91  JSR  $914D
 B7CF  B5 00     LDA  $00, X
 B7D1  15 01     ORA  $01, X
 B7D3  D0 10     BNE  $B7E5
 B7D5  E8        INX  
 B7D6  E8        INX  
 B7D7  20 15 98  JSR  $9815
 B7DA  20 EA B7  JSR  $B7EA
 B7DD  F6 02     INC  $02, X
 B7DF  D0 02     BNE  $B7E3
 B7E1  F6 03     INC  $03, X
 B7E3  80 E4     BRA  $B7C9
 B7E5  E8        INX  
 B7E6  E8        INX  
 B7E7  4C F0 B5  JMP  $B5F0
 B7EA  A5 32     LDA  $32
 B7EC  4A        LSR  
 B7ED  90 0B     BCC  $B7FA
 B7EF  20 9F 8D  JSR  $8D9F
 B7F2  20 AA A4  JSR  $A4AA
 B7F5  A9 09     LDA  #$09
 B7F7  20 E6 8D  JSR  $8DE6
 B7FA  20 49 B9  JSR  $B949
 B7FD  20 89 B9  JSR  $B989
 B800  60        RTS  
 B801  FA        PLX  
 B802  24 32     BIT  $32
 B804  50 03     BVC  $B809
 B806  4C C3 B8  JMP  $B8C3
 B809  4C F7 B5  JMP  $B5F7
 B80C  FA        PLX  
 B80D  4C F7 B5  JMP  $B5F7
 B810  FA        PLX  
 B811  20 E6 B8  JSR  $B8E6
 B814  24 32     BIT  $32
 B816  30 13     BMI  $B82B
 B818  B5 06     LDA  $06, X
 B81A  15 07     ORA  $07, X
 B81C  D0 03     BNE  $B821
 B81E  4C C3 B8  JMP  $B8C3
 B821  B5 06     LDA  $06, X
 B823  95 02     STA  $02, X
 B825  B5 07     LDA  $07, X
 B827  95 03     STA  $03, X
 B829  80 08     BRA  $B833
 B82B  B5 02     LDA  $02, X
 B82D  95 06     STA  $06, X
 B82F  B5 03     LDA  $03, X
 B831  95 07     STA  $07, X
 B833  A9 2E     LDA  #$2E
 B835  95 00     STA  $00, X
 B837  A9 00     LDA  #$00
 B839  95 01     STA  $01, X
 B83B  20 15 98  JSR  $9815
 B83E  20 EC A2  JSR  $A2EC
 B841  20 70 8F  JSR  $8F70
 B844  B5 00     LDA  $00, X
 B846  15 01     ORA  $01, X
 B848  F0 55     BEQ  $B89F
 B84A  20 34 A3  JSR  $A334
 B84D  20 1E A4  JSR  $A41E
 B850  20 9F 97  JSR  $979F
 B853  20 9F 97  JSR  $979F
 B856  20 9F 8D  JSR  $8D9F
 B859  20 70 8F  JSR  $8F70
 B85C  20 2A A1  JSR  $A12A
 B85F  20 9F 97  JSR  $979F
 B862  20 9F 97  JSR  $979F
 B865  20 70 8F  JSR  $8F70
 B868  20 5E 96  JSR  $965E
 B86B  20 2A A1  JSR  $A12A
 B86E  20 D9 9A  JSR  $9AD9
 B871  20 9F 8D  JSR  $8D9F
 B874  20 EC A2  JSR  $A2EC
 B877  20 B2 95  JSR  $95B2
 B87A  20 14 9A  JSR  $9A14
 B87D  20 A4 A3  JSR  $A3A4
 B880  20 5E 96  JSR  $965E
 B883  20 65 99  JSR  $9965
 B886  20 9F 8D  JSR  $8D9F
 B889  CA        DEX  
 B88A  CA        DEX  
 B88B  A9 0A     LDA  #$0A
 B88D  95 00     STA  $00, X
 B88F  74 01     STZ  $01, X
 B891  20 2A A1  JSR  $A12A
 B894  20 09 A1  JSR  $A109
 B897  20 9F 97  JSR  $979F
 B89A  20 2A A1  JSR  $A12A
 B89D  80 A2     BRA  $B841
 B89F  20 2A A1  JSR  $A12A
 B8A2  20 14 9A  JSR  $9A14
 B8A5  20 40 95  JSR  $9540
 B8A8  B5 00     LDA  $00, X
 B8AA  95 04     STA  $04, X
 B8AC  B5 01     LDA  $01, X
 B8AE  95 05     STA  $05, X
 B8B0  20 53 89  JSR  $8953
 B8B3  20 9F 8D  JSR  $8D9F
 B8B6  20 AA A4  JSR  $A4AA
 B8B9  20 53 89  JSR  $8953
 B8BC  A9 40     LDA  #$40
 B8BE  14 32     TRB  $32
 B8C0  4C F0 B5  JMP  $B5F0
 B8C3  E8        INX  
 B8C4  E8        INX  
 B8C5  E8        INX  
 B8C6  E8        INX  
 B8C7  20 53 89  JSR  $8953
 B8CA  A9 3F     LDA  #$3F
 B8CC  20 E6 8D  JSR  $8DE6
 B8CF  20 53 89  JSR  $8953
 B8D2  4C 0A B4  JMP  $B40A
 B8D5  20 7A 9A  JSR  $9A7A
 B8D8  B5 00     LDA  $00, X
 B8DA  15 01     ORA  $01, X
 B8DC  D0 05     BNE  $B8E3
 B8DE  7A        PLY  
 B8DF  7A        PLY  
 B8E0  4C C5 B8  JMP  $B8C5
 B8E3  E8        INX  
 B8E4  E8        INX  
 B8E5  60        RTS  
 B8E6  A5 2E     LDA  $2E
 B8E8  05 2F     ORA  $2F
 B8EA  D0 04     BNE  $B8F0
 B8EC  7A        PLY  
 B8ED  7A        PLY  
 B8EE  80 D7     BRA  $B8C7
 B8F0  60        RTS  
 B8F1  38        SEC  
 B8F2  B5 00     LDA  $00, X
 B8F4  15 01     ORA  $01, X
 B8F6  F0 19     BEQ  $B911
 B8F8  20 9F 8D  JSR  $8D9F
 B8FB  20 13 B9  JSR  $B913
 B8FE  20 2A A1  JSR  $A12A
 B901  20 58 93  JSR  $9358
 B904  B5 00     LDA  $00, X
 B906  15 01     ORA  $01, X
 B908  D0 05     BNE  $B90F
 B90A  E8        INX  
 B90B  E8        INX  
 B90C  38        SEC  
 B90D  80 03     BRA  $B912
 B90F  E8        INX  
 B910  E8        INX  
 B911  18        CLC  
 B912  60        RTS  
 B913  64 24     STZ  $24
 B915  64 25     STZ  $25
 B917  CA        DEX  
 B918  CA        DEX  
 B919  A9 2E     LDA  #$2E
 B91B  95 00     STA  $00, X
 B91D  A9 00     LDA  #$00
 B91F  95 01     STA  $01, X
 B921  20 70 8F  JSR  $8F70
 B924  B5 00     LDA  $00, X
 B926  15 01     ORA  $01, X
 B928  F0 08     BEQ  $B932
 B92A  E6 24     INC  $24
 B92C  D0 02     BNE  $B930
 B92E  E6 25     INC  $25
 B930  80 EF     BRA  $B921
 B932  A5 24     LDA  $24
 B934  95 00     STA  $00, X
 B936  A5 25     LDA  $25
 B938  95 01     STA  $01, X
 B93A  60        RTS  
 B93B  B5 02     LDA  $02, X
 B93D  15 03     ORA  $03, X
 B93F  D0 07     BNE  $B948
 B941  24 32     BIT  $32
 B943  10 03     BPL  $B948
 B945  4C C3 B8  JMP  $B8C3
 B948  60        RTS  
 B949  CA        DEX  
 B94A  CA        DEX  
 B94B  A9 2E     LDA  #$2E
 B94D  95 00     STA  $00, X
 B94F  A9 00     LDA  #$00
 B951  95 01     STA  $01, X
 B953  B5 02     LDA  $02, X
 B955  15 03     ORA  $03, X
 B957  D0 05     BNE  $B95E
 B959  20 32 96  JSR  $9632
 B95C  80 21     BRA  $B97F
 B95E  20 70 8F  JSR  $8F70
 B961  B5 00     LDA  $00, X
 B963  15 01     ORA  $01, X
 B965  D0 05     BNE  $B96C
 B967  20 32 96  JSR  $9632
 B96A  80 13     BRA  $B97F
 B96C  20 2A A1  JSR  $A12A
 B96F  20 93 97  JSR  $9793
 B972  B5 00     LDA  $00, X
 B974  15 01     ORA  $01, X
 B976  F0 05     BEQ  $B97D
 B978  20 2A A1  JSR  $A12A
 B97B  80 E1     BRA  $B95E
 B97D  E8        INX  
 B97E  E8        INX  
 B97F  60        RTS  
 B980  B5 02     LDA  $02, X
 B982  85 30     STA  $30
 B984  B5 03     LDA  $03, X
 B986  85 31     STA  $31
 B988  60        RTS  
 B989  20 9F 97  JSR  $979F
 B98C  20 9F 97  JSR  $979F
 B98F  20 9F 8D  JSR  $8D9F
 B992  20 9F 97  JSR  $979F
 B995  20 9F 97  JSR  $979F
 B998  20 70 8F  JSR  $8F70
 B99B  20 2A A1  JSR  $A12A
 B99E  20 70 8F  JSR  $8F70
 B9A1  20 2A A1  JSR  $A12A
 B9A4  20 7F A4  JSR  $A47F
 B9A7  20 53 89  JSR  $8953
 B9AA  60        RTS  
 B9AB  61 66 69 64 70 6E 3D 77 71 51 00 FF B5 52 B7 85  |afidpn=wqQ...R..|
 B9BB  B7 AE B6 AD B7 A6 B7 16 B7 10 B8 01 B8 0C B8 20  |............... |
 B9CB  63 72 20 2E 28 20 57 65 6C 63 6F 6D 65 20 74 6F  |cr .( Welcome to|
 B9DB  20 50 6C 61 6E 63 6B 20 36 35 30 32 20 29 20 63  | Planck 6502 ) c|
 B9EB  72 20 20 32 30 20 63 6F 6E 73 74 61 6E 74 20 6D  |r  20 constant m|
 B9FB  61 78 69 74 65 72 20 2D 33 39 20 63 6F 6E 73 74  |axiter -39 const|
 BA0B  61 6E 74 20 6D 69 6E 76 61 6C 20 32 30 20 63 6F  |ant minval 20 co|
 BA1B  6E 73 74 61 6E 74 20 6D 61 78 76 61 6C 20 2D 32  |nstant maxval -2|
 BA2B  39 20 63 6F 6E 73 74 61 6E 74 20 6D 69 6E 63 6F  |9 constant minco|
 BA3B  6C 20 32 39 20 20 63 6F 6E 73 74 61 6E 74 20 6D  |l 29  constant m|
 BA4B  61 78 63 6F 6C 20 76 61 72 69 61 62 6C 65 20 63  |axcol variable c|
 BA5B  72 65 61 6C 20 76 61 72 69 61 62 6C 65 20 63 69  |real variable ci|
 BA6B  6D 61 67 20 76 61 72 69 61 62 6C 65 20 7A 72 65  |mag variable zre|
 BA7B  61 6C 20 76 61 72 69 61 62 6C 65 20 7A 69 6D 61  |al variable zima|
 BA8B  67 20 76 61 72 69 61 62 6C 65 20 63 6E 74 20 76  |g variable cnt v|
 BA9B  61 72 69 61 62 6C 65 20 73 63 61 6C 65 5F 66 61  |ariable scale_fa|
 BAAB  63 74 6F 72 20 76 61 72 69 61 62 6C 65 20 72 65  |ctor variable re|
 BABB  73 63 61 6C 65 20 76 61 72 69 61 62 6C 65 20 73  |scale variable s|
 BACB  5F 65 73 63 61 70 65 20 3A 20 7A 72 5F 73 71 20  |_escape : zr_sq |
 BADB  7A 72 65 61 6C 20 40 20 64 75 70 20 72 65 73 63  |zreal @ dup resc|
 BAEB  61 6C 65 20 40 20 2A 2F 20 3B 20 3A 20 7A 69 5F  |ale @ */ ; : zi_|
 BAFB  73 71 20 7A 69 6D 61 67 20 40 20 64 75 70 20 72  |sq zimag @ dup r|
 BB0B  65 73 63 61 6C 65 20 40 20 2A 2F 20 3B 20 3A 20  |escale @ */ ; : |
 BB1B  2E 63 68 61 72 20 73 22 20 20 20 20 2C 2D 21 3A  |.char s"    ,-!:|
 BB2B  3D 3B 2A 2F 49 33 58 36 41 38 25 4E 57 20 20 22  |=;*/I3X6A8%NW  "|
 BB3B  20 64 72 6F 70 20 2B 20 31 20 74 79 70 65 20 3B  | drop + 1 type ;|
 BB4B  20 3A 20 65 73 63 61 70 65 73 3F 20 73 5F 65 73  | : escapes? s_es|
 BB5B  63 61 70 65 20 40 20 3E 20 3B 20 3A 20 63 6F 75  |cape @ > ; : cou|
 BB6B  6E 74 5F 61 6E 64 5F 74 65 73 74 3F 20 63 6E 74  |nt_and_test? cnt|
 BB7B  20 40 20 31 2B 20 64 75 70 20 63 6E 74 20 21 20  | @ 1+ dup cnt ! |
 BB8B  6D 61 78 69 74 65 72 20 3E 20 3B 20 3A 20 69 6E  |maxiter > ; : in|
 BB9B  69 74 5F 76 61 72 73 20 35 20 6C 73 68 69 66 74  |it_vars 5 lshift|
 BBAB  20 64 75 70 20 63 72 65 61 6C 20 21 20 7A 72 65  | dup creal ! zre|
 BBBB  61 6C 20 21 20 35 20 6C 73 68 69 66 74 20 64 75  |al ! 5 lshift du|
 BBCB  70 20 63 69 6D 61 67 20 21 20 7A 69 6D 61 67 20  |p cimag ! zimag |
 BBDB  21 20 73 63 61 6C 65 5F 66 61 63 74 6F 72 20 40  |! scale_factor @|
 BBEB  20 35 20 6C 73 68 69 66 74 20 72 65 73 63 61 6C  | 5 lshift rescal|
 BBFB  65 20 21 20 72 65 73 63 61 6C 65 20 40 20 34 20  |e ! rescale @ 4 |
 BC0B  2A 20 73 5F 65 73 63 61 70 65 20 21 20 31 20 63  |* s_escape ! 1 c|
 BC1B  6E 74 20 21 20 3B 20 3A 20 64 6F 65 73 63 61 70  |nt ! ; : doescap|
 BC2B  65 20 7A 72 5F 73 71 20 7A 69 5F 73 71 20 32 64  |e zr_sq zi_sq 2d|
 BC3B  75 70 20 2B 20 65 73 63 61 70 65 73 3F 20 69 66  |up + escapes? if|
 BC4B  20 32 64 72 6F 70 20 74 72 75 65 20 65 6C 73 65  | 2drop true else|
 BC5B  20 2D 20 63 72 65 61 6C 20 40 20 2B 20 7A 72 65  | - creal @ + zre|
 BC6B  61 6C 20 40 20 7A 69 6D 61 67 20 40 20 72 65 73  |al @ zimag @ res|
 BC7B  63 61 6C 65 20 40 20 2A 2F 20 31 20 6C 73 68 69  |cale @ */ 1 lshi|
 BC8B  66 74 20 63 69 6D 61 67 20 40 20 2B 20 7A 69 6D  |ft cimag @ + zim|
 BC9B  61 67 20 21 20 7A 72 65 61 6C 20 21 20 63 6F 75  |ag ! zreal ! cou|
 BCAB  6E 74 5F 61 6E 64 5F 74 65 73 74 3F 20 74 68 65  |nt_and_test? the|
 BCBB  6E 20 3B 20 3A 20 64 6F 63 65 6C 6C 20 69 6E 69  |n ; : docell ini|
 BCCB  74 5F 76 61 72 73 20 62 65 67 69 6E 20 64 6F 65  |t_vars begin doe|
 BCDB  73 63 61 70 65 20 75 6E 74 69 6C 20 63 6E 74 20  |scape until cnt |
 BCEB  40 20 2E 63 68 61 72 20 3B 20 3A 20 64 6F 72 6F  |@ .char ; : doro|
 BCFB  77 20 6D 61 78 76 61 6C 20 6D 69 6E 76 61 6C 20  |w maxval minval |
 BD0B  64 6F 20 64 75 70 20 69 20 64 6F 63 65 6C 6C 20  |do dup i docell |
 BD1B  6C 6F 6F 70 20 64 72 6F 70 20 3B 20 3A 20 6D 61  |loop drop ; : ma|
 BD2B  6E 64 65 6C 62 72 6F 74 20 63 72 20 6D 61 78 63  |ndelbrot cr maxc|
 BD3B  6F 6C 20 6D 69 6E 63 6F 6C 20 64 6F 20 69 20 64  |ol mincol do i d|
 BD4B  6F 72 6F 77 20 63 72 20 6C 6F 6F 70 20 3B 20 36  |orow cr loop ; 6|
 BD5B  35 34 30 38 20 63 6F 6E 73 74 61 6E 74 20 70 6F  |5408 constant po|
 BD6B  72 74 62 20 36 35 34 30 39 20 63 6F 6E 73 74 61  |rtb 65409 consta|
 BD7B  6E 74 20 70 6F 72 74 61 20 36 35 34 31 30 20 63  |nt porta 65410 c|
 BD8B  6F 6E 73 74 61 6E 74 20 64 64 72 62 20 36 35 34  |onstant ddrb 654|
 BD9B  31 31 20 63 6F 6E 73 74 61 6E 74 20 64 64 72 61  |11 constant ddra|
 BDAB  20 3A 20 75 70 74 69 6D 65 20 20 31 32 32 20 40  | : uptime  122 @|
 BDBB  20 31 32 34 20 40 20 32 30 30 20 75 6D 2F 6D 6F  | 124 @ 200 um/mo|
 BDCB  64 20 73 3E 64 20 36 30 20 75 6D 2F 6D 6F 64 20  |d s>d 60 um/mod |
 BDDB  73 3E 64 20 36 30 20 75 6D 2F 6D 6F 64 20 63 72  |s>d 60 um/mod cr|
 BDEB  20 2E 20 2E 22 20 68 20 22 20 2E 20 2E 22 20 6D  | . ." h " . ." m|
 BDFB  20 22 20 2E 20 2E 22 20 2C 22 20 32 2F 20 2E 20  | " . ." ," 2/ . |
 BE0B  2E 22 20 73 22 20 63 72 20 3B 20 3A 20 6C 20 32  |." s" cr ; : l 2|
 BE1B  35 36 20 30 20 64 6F 20 69 20 70 6F 72 74 61 20  |56 0 do i porta |
 BE2B  63 21 20 6C 6F 6F 70 20 3B 20 3A 20 6C 69 67 68  |c! loop ; : ligh|
 BE3B  74 73 20 30 20 64 6F 20 6C 20 6C 6F 6F 70 20 3B  |ts 0 do l loop ;|
 BE4B  20 3A 20 64 65 6C 61 79 20 30 20 64 6F 20 6C 6F  | : delay 0 do lo|
 BE5B  6F 70 20 3B 20 3A 20 64 65 6C 61 79 5F 6C 6F 6E  |op ; : delay_lon|
 BE6B  67 20 30 20 64 6F 20 32 35 35 20 64 65 6C 61 79  |g 0 do 255 delay|
 BE7B  20 6C 6F 6F 70 20 3B 20 3A 20 73 6C 20 32 35 36  | loop ; : sl 256|
 BE8B  20 30 20 64 6F 20 32 35 35 20 64 65 6C 61 79 20  | 0 do 255 delay |
 BE9B  69 20 70 6F 72 74 61 20 63 21 20 6C 6F 6F 70 20  |i porta c! loop |
 BEAB  3B 20 3A 20 73 6C 69 67 68 74 73 20 30 20 64 6F  |; : slights 0 do|
 BEBB  20 73 6C 20 6C 6F 6F 70 20 3B 20 3A 20 76 73 6C  | sl loop ; : vsl|
 BECB  20 32 35 36 20 30 20 64 6F 20 31 30 20 64 65 6C  | 256 0 do 10 del|
 BEDB  61 79 5F 6C 6F 6E 67 20 69 20 70 6F 72 74 61 20  |ay_long i porta |
 BEEB  63 21 20 6C 6F 6F 70 20 3B 20 3A 20 76 73 6C 69  |c! loop ; : vsli|
 BEFB  67 68 74 73 20 30 20 64 6F 20 76 73 6C 20 6C 6F  |ghts 0 do vsl lo|
 BF0B  6F 70 20 3B 20 3A 20 6D 61 6E 64 65 6C 20 73 63  |op ; : mandel sc|
 BF1B  61 6C 65 5F 66 61 63 74 6F 72 20 40 20 30 20 3D  |ale_factor @ 0 =|
 BF2B  20 69 66 20 32 30 20 73 63 61 6C 65 5F 66 61 63  | if 20 scale_fac|
 BF3B  74 6F 72 20 21 20 74 68 65 6E 20 6D 61 6E 64 65  |tor ! then mande|
 BF4B  6C 62 72 6F 74 20 3B 20 3A 20 74 6D 61 6E 64 65  |lbrot ; : tmande|
 BF5B  6C 20 75 70 74 69 6D 65 20 6D 61 6E 64 65 6C 20  |l uptime mandel |
 BF6B  75 70 74 69 6D 65 20 3B 20 3A 20 6D 75 6C 74 69  |uptime ; : multi|
 BF7B  6D 61 6E 64 65 6C 20 31 38 20 73 63 61 6C 65 5F  |mandel 18 scale_|
 BF8B  66 61 63 74 6F 72 20 21 20 30 20 64 6F 20 73 63  |factor ! 0 do sc|
 BF9B  61 6C 65 5F 66 61 63 74 6F 72 20 40 20 31 2B 20  |ale_factor @ 1+ |
 BFAB  31 2B 20 73 63 61 6C 65 5F 66 61 63 74 6F 72 20  |1+ scale_factor |
 BFBB  21 20 6D 61 6E 64 65 6C 20 6C 6F 6F 70 20 3B 20  |! mandel loop ; |
 BFCB  3A 20 74 6D 75 6C 74 69 6D 61 6E 64 65 6C 20 31  |: tmultimandel 1|
 BFDB  38 20 73 63 61 6C 65 5F 66 61 63 74 6F 72 20 21  |8 scale_factor !|
 BFEB  20 30 20 64 6F 20 73 63 61 6C 65 5F 66 61 63 74  | 0 do scale_fact|
 BFFB  6F 72 20 40 20 31 2B 20 31 2B 20 73 63 61 6C 65  |or @ 1+ 1+ scale|
 C00B  5F 66 61 63 74 6F 72 20 21 20 74 6D 61 6E 64 65  |_factor ! tmande|
 C01B  6C 20 6C 6F 6F 70 20 3B 20 03 00 00 00 ED 85 F0  |l loop ; .......|
 C02B  85 62 79 65 04 00 24 C0 00 80 C5 80 63 6F 6C 64  |.bye..$.....cold|
 C03B  06 10 2F C0 9C A8 A6 A8 6C 63 64 70 75 74 08 10  |../.....lcdput..|
 C04B  3B C0 A7 A8 D1 A8 6C 63 64 70 72 69 6E 74 03 00  |;.....lcdprint..|
 C05B  49 C0 D2 A8 D5 A8 63 6C 73 08 00 59 C0 D6 A8 D9  |I.....cls..Y....|
 C06B  A8 73 70 69 5F 69 6E 69 74 0E 00 64 C0 DA A8 DD  |.spi_init..d....|
 C07B  A8 73 70 69 5F 63 6C 6B 5F 74 6F 67 67 6C 65 0A  |.spi_clk_toggle.|
 C08B  00 74 C0 DE A8 E8 A8 73 70 69 5F 73 65 6C 65 63  |.t.....spi_selec|
 C09B  74 0E 00 8A C0 E9 A8 F5 A8 73 70 69 5F 74 72 61  |t........spi_tra|
 C0AB  6E 73 63 65 69 76 65 07 00 9C C0 F6 A8 02 A9 73  |nsceive........s|
 C0BB  64 5F 69 6E 69 74 02 08 B2 C0 AD 8D B0 8D 65 64  |d_init........ed|
 C0CB  03 08 C1 C0 03 9C 90 9C 73 65 65 05 00 CB C0 B8  |........see.....|
 C0DB  90 BE 90 66 6F 72 74 68 05 00 D6 C0 C7 97 F1 97  |...forth........|
 C0EB  6F 72 64 65 72 06 00 E3 C0 D9 A2 EB A2 3E 6F 72  |order........>or|
 C0FB  64 65 72 08 00 F0 C0 D7 99 E3 99 70 72 65 76 69  |der........previ|
 C10B  6F 75 73 04 00 FE C0 20 83 2F 83 61 6C 73 6F 04  |ous.... ./.also.|
 C11B  00 0E C1 A9 97 B4 97 6F 6E 6C 79 0E 00 1A C1 23  |.......only....#|
 C12B  A7 29 A7 66 6F 72 74 68 2D 77 6F 72 64 6C 69 73  |.).forth-wordlis|
 C13B  74 0F 00 26 C1 8A 97 92 97 65 64 69 74 6F 72 2D  |t..&.....editor-|
 C14B  77 6F 72 64 6C 69 73 74 12 00 3C C1 23 A3 2B A3  |wordlist..<.#.+.|
 C15B  61 73 73 65 6D 62 6C 65 72 2D 77 6F 72 64 6C 69  |assembler-wordli|
 C16B  73 74 0D 00 53 C1 D0 9A D8 9A 72 6F 6F 74 2D 77  |st..S.....root-w|
 C17B  6F 72 64 6C 69 73 74 09 00 6D C1 24 91 4C 91 67  |ordlist..m.$.L.g|
 C18B  65 74 2D 6F 72 64 65 72 09 00 82 C1 9D 9C D0 9C  |et-order........|
 C19B  73 65 74 2D 6F 72 64 65 72 0B 00 93 C1 19 91 23  |set-order......#|
 C1AB  91 67 65 74 2D 63 75 72 72 65 6E 74 0B 10 A4 C1  |.get-current....|
 C1BB  91 9C 9C 9C 73 65 74 2D 63 75 72 72 65 6E 74 0F  |....set-current.|
 C1CB  10 B7 C1 22 9B 02 9C 73 65 61 72 63 68 2D 77 6F  |..."...search-wo|
 C1DB  72 64 6C 69 73 74 08 00 CA C1 7D A6 93 A6 77 6F  |rdlist....}...wo|
 C1EB  72 64 6C 69 73 74 0B 00 E1 C1 DD 8A E5 8A 64 65  |rdlist........de|
 C1FB  66 69 6E 69 74 69 6F 6E 73 13 10 F1 C1 04 84 2C  |finitions......,|
 C20B  85 62 6C 6F 63 6B 2D 72 61 6D 64 72 69 76 65 2D  |.block-ramdrive-|
 C21B  69 6E 69 74 04 10 04 C2 6D 93 79 93 6C 69 73 74  |init....m.y.list|
 C22B  04 10 1F C2 48 A1 8C A1 74 68 72 75 04 10 2B C2  |....H...thru..+.|
 C23B  A7 93 EA 93 6C 6F 61 64 05 00 37 C2 77 90 80 90  |....load..7.w...|
 C24B  66 6C 75 73 68 0D 00 43 C2 E9 8D EF 8D 65 6D 70  |flush..C.....emp|
 C25B  74 79 2D 62 75 66 66 65 72 73 06 00 50 C2 A5 85  |ty-buffers..P...|
 C26B  D5 85 62 75 66 66 65 72 06 00 65 C2 E0 A5 E8 A5  |..buffer..e.....|
 C27B  75 70 64 61 74 65 05 00 73 C2 B1 83 03 84 62 6C  |update..s.....bl|
 C28B  6F 63 6B 0C 00 81 C2 40 9E 5A 9E 73 61 76 65 2D  |ock....@.Z.save-|
 C29B  62 75 66 66 65 72 73 11 28 8E C2 3B 85 4A 85 62  |buffers.(..;.J.b|
 C2AB  6C 6F 63 6B 2D 72 65 61 64 2D 76 65 63 74 6F 72  |lock-read-vector|
 C2BB  0A 28 A2 C2 2D 85 3B 85 62 6C 6F 63 6B 2D 72 65  |.(..-.;.block-re|
 C2CB  61 64 12 08 BB C2 5E 85 6D 85 62 6C 6F 63 6B 2D  |ad....^.m.block-|
 C2DB  77 72 69 74 65 2D 76 65 63 74 6F 72 0B 08 CD C2  |write-vector....|
 C2EB  50 85 5E 85 62 6C 6F 63 6B 2D 77 72 69 74 65 03  |P.^.block-write.|
 C2FB  00 E7 C2 93 83 A2 83 62 6C 6B 03 00 FA C2 5B 9E  |.......blk....[.|
 C30B  6A 9E 73 63 72 09 00 05 C3 A3 83 B0 83 62 6C 6B  |j.scr........blk|
 C31B  62 75 66 66 65 72 0C 00 10 C3 95 85 A4 85 62 75  |buffer........bu|
 C32B  66 66 62 6C 6F 63 6B 6E 75 6D 0A 00 21 C3 DD 85  |ffblocknum..!...|
 C33B  EC 85 62 75 66 66 73 74 61 74 75 73 07 00 35 C3  |..buffstatus..5.|
 C34B  D6 85 DC 85 62 75 66 66 65 72 3A 08 00 47 C3 E9  |....buffer:..G..|
 C35B  A5 F3 A5 75 73 65 72 61 64 64 72 09 04 56 C3 70  |...useraddr..V.p|
 C36B  82 88 82 61 63 74 69 6F 6E 2D 6F 66 02 04 66 C3  |...action-of..f.|
 C37B  EB 92 03 93 69 73 06 00 77 C3 D6 8A DC 8A 64 65  |....is..w.....de|
 C38B  66 65 72 21 06 00 81 C3 CF 8A D5 8A 64 65 66 65  |fer!........defe|
 C39B  72 40 07 0D 8F C3 F0 8D 04 8E 65 6E 64 63 61 73  |r@........endcas|
 C3AB  65 05 0D 9D C3 B1 8D CA 8D 65 6E 64 6F 66 02 0D  |e........endof..|
 C3BB  AC C3 71 97 89 97 6F 66 04 0D B9 C3 23 A7 29 A7  |..q...of....#.).|
 C3CB  63 61 73 65 05 0D C3 C3 0D A6 20 A6 77 68 69 6C  |case...... .whil|
 C3DB  65 05 0D CF C3 C5 A5 CF A5 75 6E 74 69 6C 06 0D  |e........until..|
 C3EB  DC C3 BC 9A C8 9A 72 65 70 65 61 74 04 0D E9 C3  |......repeat....|
 C3FB  B1 8D CA 8D 65 6C 73 65 04 0D F7 C3 3E A1 47 A1  |....else....>.G.|
 C40B  74 68 65 6E 02 0D 03 C4 F3 91 03 92 69 66 02 04  |then........if..|
 C41B  0F C4 48 8C 56 8C 2E 28 01 04 19 C4 51 98 60 98  |..H.V..(....Q.`.|
 C42B  28 04 10 23 C4 37 A6 7C A6 77 6F 72 64 04 10 2C  |(..#.7.|.word..,|
 C43B  C4 83 8F CA 8F 66 69 6E 64 0C 10 38 C4 05 8E 81  |.....find..8....|
 C44B  8E 65 6E 76 69 72 6F 6E 6D 65 6E 74 3F 06 18 44  |.environment?..D|
 C45B  C4 6B 9E 09 9F 73 65 61 72 63 68 07 10 58 C4 78  |.k...search..X.x|
 C46B  87 DC 87 63 6F 6D 70 61 72 65 06 10 66 C4 2A 8B  |...compare..f.*.|
 C47B  30 8B 64 69 73 61 73 6D 02 00 75 C4 90 8C D3 8C  |0.disasm..u.....|
 C48B  2E 73 04 10 83 C4 24 8D 8A 8D 64 75 6D 70 04 00  |.s....$...dump..|
 C49B  8D C4 84 83 89 83 62 65 6C 6C 05 00 99 C4 AA 82  |......bell......|
 C4AB  AA 82 61 6C 69 67 6E 07 00 A5 C4 AA 82 AA 82 61  |..align........a|
 C4BB  6C 69 67 6E 65 64 08 10 B2 C4 F0 A6 10 A7 77 6F  |ligned........wo|
 C4CB  72 64 73 69 7A 65 05 00 C1 C4 94 A6 EF A6 77 6F  |rdsize........wo|
 C4DB  72 64 73 06 04 D1 C4 99 94 D6 94 6D 61 72 6B 65  |rds........marke|
 C4EB  72 05 10 DE C4 50 83 6D 83 61 74 2D 78 79 04 00  |r....P.m.at-xy..|
 C4FB  EC C4 33 98 50 98 70 61 67 65 02 00 F9 C4 53 89  |..3.P.page....S.|
 C50B  58 89 63 72 05 00 05 C5 47 92 51 92 69 6E 70 75  |X.cr....G.Q.inpu|
 C51B  74 06 00 0F C5 0A 98 14 98 6F 75 74 70 75 74 04  |t........output.|
 C52B  10 1C C5 69 9F 7D 9F 73 69 67 6E 04 10 2A C5 C7  |...i.}.sign..*..|
 C53B  91 D8 91 68 6F 6C 64 02 10 36 C5 3E 97 5F 97 23  |...hold..6.>._.#|
 C54B  3E 02 10 42 C5 60 97 70 97 23 73 01 10 4C C5 09  |>..B.`.p.#s..L..|
 C55B  97 3D 97 23 02 00 56 C5 4A 93 57 93 3C 23 03 00  |.=.#..V.J.W.<#..|
 C56B  5F C5 2E A2 38 A2 3E 69 6E 06 10 69 C5 21 A6 36  |_...8.>in..i.!.6|
 C57B  A6 77 69 74 68 69 6E 08 10 74 C5 74 91 C6 91 68  |.within..t.t...h|
 C58B  65 78 73 74 6F 72 65 06 10 82 C5 3C 86 88 86 63  |exstore....<...c|
 C59B  6C 65 61 76 65 03 00 92 C5 23 98 32 98 70 61 64  |leave....#.2.pad|
 C5AB  05 10 A0 C5 89 86 C3 86 63 6D 6F 76 65 06 10 AB  |........cmove...|
 C5BB  C5 C4 86 FE 86 63 6D 6F 76 65 3E 04 18 B8 C5 B2  |.....cmove>.....|
 C5CB  95 D0 95 6D 6F 76 65 01 04 C6 C5 6E 83 76 83 5C  |...move....n.v.\|
 C5DB  02 10 D2 C5 E5 A0 ED A0 2A 2F 05 10 DB C5 EE A0  |........*/......|
 C5EB  FD A0 2A 2F 6D 6F 64 03 10 E5 C5 A9 95 B1 95 6D  |..*/mod........m|
 C5FB  6F 64 04 10 F2 C5 83 9F 9A 9F 2F 6D 6F 64 01 10  |od......../mod..|
 C60B  FD C5 7E 9F 9A 9F 2F 06 10 09 C6 81 90 B7 90 66  |..~.../........f|
 C61B  6D 2F 6D 6F 64 06 10 12 C6 57 A0 7F A0 73 6D 2F  |m/mod....W...sm/|
 C62B  72 65 6D 06 10 20 C6 36 A5 77 A5 75 6D 2F 6D 6F  |rem.. .6.w.um/mo|
 C63B  64 01 10 2E C6 DC A0 E4 A0 2A 03 10 3C C6 78 A5  |d........*..<.x.|
 C64B  BD A5 75 6D 2A 02 10 45 C6 7E 94 98 94 6D 2A 05  |..um*..E.~...m*.|
 C65B  10 50 C6 3F 89 52 89 63 6F 75 6E 74 07 00 5A C6  |.P.?.R.count..Z.|
 C66B  95 8A 9B 8A 64 65 63 69 6D 61 6C 03 00 67 C6 6D  |....decimal..g.m|
 C67B  91 73 91 68 65 78 07 10 76 C6 39 A2 D8 A2 3E 6E  |.s.hex..v.9...>n|
 C68B  75 6D 62 65 72 06 10 81 C6 7A 96 08 97 6E 75 6D  |umber....z...num|
 C69B  62 65 72 06 10 90 C6 F5 8A 29 8B 64 69 67 69 74  |ber......).digit|
 C6AB  3F 04 00 9E C6 77 83 7F 83 62 61 73 65 08 10 AC  |?....w...base...|
 C6BB  C6 C5 90 18 91 65 76 61 6C 75 61 74 65 05 00 B8  |.....evaluate...|
 C6CB  C6 FE A0 08 A1 73 74 61 74 65 05 17 C8 C6 89 82  |.....state......|
 C6DB  A9 82 61 67 61 69 6E 05 07 D5 C6 80 83 83 83 62  |..again........b|
 C6EB  65 67 69 6E 04 00 E2 C6 83 80 C5 80 71 75 69 74  |egin........quit|
 C6FB  07 0D EF C6 3D 9A 79 9A 72 65 63 75 72 73 65 05  |....=.y.recurse.|
 C70B  03 FB C6 40 93 45 93 6C 65 61 76 65 06 03 0A C7  |...@.E.leave....|
 C71B  BE A5 C4 A5 75 6E 6C 6F 6F 70 04 03 17 C7 68 8F  |....unloop....h.|
 C72B  69 8F 65 78 69 74 05 05 25 C7 F2 93 58 94 2B 6C  |i.exit..%...X.+l|
 C73B  6F 6F 70 04 05 31 C7 EB 93 58 94 6C 6F 6F 70 01  |oop..1...X.loop.|
 C74B  03 3E C7 04 93 1D 93 6A 01 03 4A C7 D9 91 F2 91  |.>.....j..J.....|
 C75B  69 03 0D 53 C7 4C 8B AC 8B 3F 64 6F 02 0D 5C C7  |i..S.L...?do..\.|
 C76B  52 8B AC 8B 64 6F 06 0D 67 C7 19 81 23 81 61 62  |R...do..g...#.ab|
 C77B  6F 72 74 22 05 00 71 C7 81 80 C5 80 61 62 6F 72  |ort"..q.....abor|
 C78B  74 0F 00 7F C7 1F A1 29 A1 73 74 72 69 70 2D 75  |t......).strip-u|
 C79B  6E 64 65 72 66 6C 6F 77 08 00 8C C7 08 96 12 96  |nderflow........|
 C7AB  6E 63 2D 6C 69 6D 69 74 0C 00 A3 C7 14 83 1F 83  |nc-limit........|
 C7BB  61 6C 6C 6F 77 2D 6E 61 74 69 76 65 0D 00 B3 C7  |allow-native....|
 C7CB  30 83 3D 83 61 6C 77 61 79 73 2D 6E 61 74 69 76  |0.=.always-nativ|
 C7DB  65 0C 00 C7 C7 24 96 31 96 6E 65 76 65 72 2D 6E  |e....$.1.never-n|
 C7EB  61 74 69 76 65 0C 00 DC C7 F5 88 00 89 63 6F 6D  |ative........com|
 C7FB  70 69 6C 65 2D 6F 6E 6C 79 09 00 F0 C7 3B 92 46  |pile-only....;.F|
 C80B  92 69 6D 6D 65 64 69 61 74 65 08 05 04 C8 98 99  |.immediate......|
 C81B  D6 99 70 6F 73 74 70 6F 6E 65 03 04 15 C8 09 9B  |..postpone......|
 C82B  12 9B 73 5C 22 02 0C 25 C8 D1 9C 2D 9E 73 22 02  |..s\"..%...-.s".|
 C83B  05 30 C8 57 8C 61 8C 2E 22 08 15 3A C8 BB 9F 2A  |.0.W.a.."..:...*|
 C84B  A0 73 6C 69 74 65 72 61 6C 07 15 44 C8 7A 93 87  |.sliteral..D.z..|
 C85B  93 6C 69 74 65 72 61 6C 01 04 54 C8 C9 9A CF 9A  |.literal..T.....|
 C86B  5D 01 05 63 C8 45 93 49 93 5B 08 18 6C C8 DD 87  |]..c.E.I.[..l...|
 C87B  F4 88 63 6F 6D 70 69 6C 65 2C 07 00 75 C8 42 87  |..compile,..u.B.|
 C88B  5D 87 3A 6E 6F 6E 61 6D 65 01 05 85 C8 0A 9F 68  |].:noname......h|
 C89B  9F 3B 01 00 94 C8 FF 86 41 87 3A 09 00 9D C8 95  |.;......A.:.....|
 C8AB  A0 9F A0 73 6F 75 72 63 65 2D 69 64 06 00 A6 C8  |...source-id....|
 C8BB  80 A0 94 A0 73 6F 75 72 63 65 0F 10 B7 C8 41 8F  |....source....A.|
 C8CB  67 8F 65 78 65 63 75 74 65 2D 70 61 72 73 69 6E  |g.execute-parsin|
 C8DB  67 05 10 C5 C8 BC 98 53 99 70 61 72 73 65 0A 08  |g......S.parse..|
 C8EB  DC C8 61 98 53 99 70 61 72 73 65 2D 6E 61 6D 65  |..a.S.parse-name|
 C8FB  08 00 E9 C8 2B 93 38 93 6C 61 74 65 73 74 6E 74  |....+.8.latestnt|
 C90B  08 00 FB C8 39 93 3F 93 6C 61 74 65 73 74 78 74  |....9.?.latestxt|
 C91B  05 00 0B C9 9C 8A CE 8A 64 65 66 65 72 05 10 1B  |........defer...|
 C92B  C9 09 A2 2D A2 3E 62 6F 64 79 0B 10 28 C9 EE 95  |...-.>body..(...|
 C93B  07 96 6E 61 6D 65 3E 73 74 72 69 6E 67 08 10 35  |..name>string..5|
 C94B  C9 68 92 DA 92 69 6E 74 3E 6E 61 6D 65 08 10 48  |.h...int>name..H|
 C95B  C9 D1 95 ED 95 6E 61 6D 65 3E 69 6E 74 03 05 58  |.....name>int..X|
 C96B  C9 8E 85 94 85 5B 27 5D 01 00 68 C9 8D A1 AC A1  |.....[']..h.....|
 C97B  27 09 10 73 C9 CB 8F 76 90 66 69 6E 64 2D 6E 61  |'..s...v.find-na|
 C98B  6D 65 04 10 7C C9 EA 8E 2C 8F 66 69 6C 6C 05 00  |me..|...,.fill..|
 C99B  8D C9 DA 8E 2C 8F 62 6C 61 6E 6B 05 00 99 C9 E4  |....,.blank.....|
 C9AB  8E 2C 8F 65 72 61 73 65 02 10 A6 C9 4F 8A 6F 8A  |.,.erase....O.o.|
 C9BB  64 2B 02 10 B3 C9 2E 8A 4E 8A 64 2D 03 10 BD C9  |d+......N.d-....|
 C9CB  70 8A 75 8A 64 3E 73 03 10 C7 C9 2E 9E 3F 9E 73  |p.u.d>s......?.s|
 C9DB  3E 64 02 0C D2 C9 AD A1 08 A2 74 6F 05 10 DD C9  |>d........to....|
 C9EB  01 89 3E 89 76 61 6C 75 65 08 10 E7 C9 01 89 3E  |..>.value......>|
 C9FB  89 63 6F 6E 73 74 61 6E 74 08 00 F4 C9 F4 A5 0C  |.constant.......|
 CA0B  A6 76 61 72 69 61 62 6C 65 05 05 04 CA E5 8B F3  |.variable.......|
 CA1B  8B 64 6F 65 73 3E 06 00 14 CA 59 89 2D 8A 63 72  |.does>....Y.-.cr|
 CA2B  65 61 74 65 05 10 21 CA AB 82 13 83 61 6C 6C 6F  |eate..!.....allo|
 CA3B  74 03 00 2F CA 1E 93 27 93 6B 65 79 05 00 3C CA  |t../...'.key..<.|
 CA4B  E6 8A F4 8A 64 65 70 74 68 06 00 47 CA D0 A5 DF  |....depth..G....|
 CA5B  A5 75 6E 75 73 65 64 07 08 54 CA 25 9A 3C 9A 72  |.unused..T.%.<.r|
 CA6B  3E 69 6E 70 75 74 07 08 62 CA 52 92 67 92 69 6E  |>input..b.R.g.in|
 CA7B  70 75 74 3E 72 06 18 71 CA 4E 81 46 82 61 63 63  |put>r..q.N.F.acc|
 CA8B  65 70 74 06 00 80 CA 7A 9A BB 9A 72 65 66 69 6C  |ept....z...refil|
 CA9B  6C 07 10 8E CA 9B 9F BA 9F 2F 73 74 72 69 6E 67  |l......../string|
 CAAB  08 10 9C CA 53 95 6B 95 2D 6C 65 61 64 69 6E 67  |....S.k.-leading|
 CABB  09 10 AB CA 6C 95 A8 95 2D 74 72 61 69 6C 69 6E  |....l...-trailin|
 CACB  67 02 00 BB CA 8A 83 92 83 62 6C 06 10 CC CA A6  |g........bl.....|
 CADB  A0 DB A0 73 70 61 63 65 73 06 10 D6 CA 6E 85 86  |...spaces....n..|
 CAEB  85 62 6F 75 6E 64 73 02 10 E4 CA F0 85 FA 85 63  |.bounds........c|
 CAFB  2C 07 10 F2 CA 31 8B 4B 8B 64 6E 65 67 61 74 65  |,....1.K.dnegate|
 CB0B  06 10 FC CA 13 96 23 96 6E 65 67 61 74 65 06 10  |......#.negate..|
 CB1B  0B CB DB 92 EA 92 69 6E 76 65 72 74 03 11 19 CB  |......invert....|
 CB2B  1E A4 3D A4 32 3E 72 03 01 27 CB A4 A3 C0 A3 32  |..=.2>r..'.....2|
 CB3B  72 3E 03 09 32 CB 86 A3 A3 A3 32 72 40 08 14 3D  |r>..2.....2r@..=|
 CB4B  CB 63 A4 6F A4 32 6C 69 74 65 72 61 6C 09 10 48  |.c.o.2literal..H|
 CB5B  CB 3E A4 62 A4 32 63 6F 6E 73 74 61 6E 74 09 00  |.>.b.2constant..|
 CB6B  58 CB 70 A4 7E A4 32 76 61 72 69 61 62 6C 65 02  |X.p.~.2variable.|
 CB7B  10 69 CB 4C A3 6D A3 32 40 02 10 7A CB D4 A3 F9  |.i.L.m.2@..z....|
 CB8B  A3 32 21 05 10 84 CB 6E A3 85 A3 32 6F 76 65 72  |.2!....n...2over|
 CB9B  05 10 8E CB FA A3 1D A4 32 73 77 61 70 05 10 9B  |........2swap...|
 CBAB  CB 2C A3 33 A3 32 64 72 6F 70 03 10 A8 CB 08 95  |.,.3.2drop......|
 CBBB  23 95 6D 61 78 03 10 B5 CB 24 95 3F 95 6D 69 6E  |#.max....$.?.min|
 CBCB  02 10 C0 CB 52 A7 61 A7 30 3C 02 10 CB CB 3E A7  |....R.a.0<....>.|
 CBDB  51 A7 30 3E 03 10 D5 CB 62 A7 73 A7 30 3C 3E 02  |Q.0>....b.s.0<>.|
 CBEB  10 DF CB 2A A7 3D A7 30 3D 01 10 EA CB 4D 91 61  |...*.=.0=....M.a|
 CBFB  91 3E 02 10 F4 CB D8 A4 ED A4 75 3E 02 10 FD CB  |.>........u>....|
 CC0B  EE A4 03 A5 75 3C 01 10 07 CC 58 93 6C 93 3C 02  |....u<....X.l.<.|
 CC1B  10 11 CC 40 96 5D 96 3C 3E 01 10 1A CC BE 8E D9  |...@.].<>.......|
 CC2B  8E 3D 02 10 24 CC C1 A3 CB A3 32 2F 02 10 2D CC  |.=..$.....2/..-.|
 CC3B  CC A3 D3 A3 32 2A 02 10 37 CC 9F 97 A8 97 31 2B  |....2*..7.....1+|
 CC4B  02 10 41 CC 93 97 9E 97 31 2D 04 00 4B CC 62 91  |..A.....1-..K.b.|
 CC5B  6C 91 68 65 72 65 05 10 55 CC 11 86 20 86 63 65  |l.here..U... .ce|
 CC6B  6C 6C 2B 05 00 61 CC CC A3 D3 A3 63 65 6C 6C 73  |ll+..a.....cells|
 CC7B  05 12 6E CC 38 86 3B 86 63 68 61 72 73 05 00 7B  |..n.8.;.chars..{|
 CC8B  CC 9F 97 A8 97 63 68 61 72 2B 06 05 88 CC 87 85  |.....char+......|
 CC9B  8D 85 5B 63 68 61 72 5D 04 00 95 CC 21 86 37 86  |..[char]....!.7.|
 CCAB  63 68 61 72 04 00 A3 CC 54 99 64 99 70 69 63 6B  |char....T.d.pick|
 CCBB  06 10 AF CC 6A 94 7D 94 6C 73 68 69 66 74 06 10  |....j.}.lshift..|
 CCCB  BB CC F5 9A 08 9B 72 73 68 69 66 74 03 10 C9 CC  |......rshift....|
 CCDB  11 A7 22 A7 78 6F 72 02 10 D7 CC B5 97 C6 97 6F  |..".xor........o|
 CCEB  72 03 10 E2 CC 3E 83 4F 83 61 6E 64 04 10 EC CC  |r....>.O.and....|
 CCFB  76 8A 94 8A 64 61 62 73 03 10 F7 CC 39 81 4D 81  |v...dabs....9.M.|
 CD0B  61 62 73 01 10 03 CD 40 95 52 95 2D 01 10 0E CD  |abs....@.R.-....|
 CD1B  65 99 77 99 2B 04 10 17 CD EB 99 FE 99 3F 64 75  |e.w.+........?du|
 CD2B  70 04 10 20 CD 34 A3 4B A3 32 64 75 70 01 00 2C  |p.. .4.K.2dup..,|
 CD3B  CD 23 A3 2B A3 32 01 00 38 CD 8A 97 92 97 31 01  |.#.+.2..8.....1.|
 CD4B  00 41 CD 23 A7 29 A7 30 05 00 4A CD A0 A0 A5 A0  |.A.#.).0..J.....|
 CD5B  73 70 61 63 65 04 00 53 CD 00 A3 08 A3 74 72 75  |space..S.....tru|
 CD6B  65 05 00 60 CD 69 8F 6F 8F 66 61 6C 73 65 01 00  |e..`.i.o.false..|
 CD7B  6C CD E4 99 EA 99 3F 04 10 79 CD 17 A5 35 A5 75  |l.....?..y...5.u|
 CD8B  64 2E 72 03 10 82 CD 04 A5 16 A5 75 64 2E 03 10  |d.r........ud...|
 CD9B  8E CD F3 8C 1D 8D 64 2E 72 02 10 99 CD D4 8C F2  |......d.r.......|
 CDAB  8C 64 2E 02 10 A4 CD 62 8C 8F 8C 2E 72 03 10 AE  |.d.....b....r...|
 CDBB  CD B6 A4 D7 A4 75 2E 72 02 10 B8 CD AA A4 B5 A4  |.....u.r........|
 CDCB  75 2E 01 10 C3 CD 26 8C 47 8C 2E 04 10 CD CD 7F  |u.....&.G.......|
 CDDB  A4 A9 A4 74 79 70 65 04 18 D6 CD DF 8D E9 8D 65  |...type........e|
 CDEB  6D 69 74 07 10 E2 CD 2D 8F 33 8F 65 78 65 63 75  |mit....-.3.execu|
 CDFB  74 65 02 10 EE CD 78 99 97 99 2B 21 02 10 FD CD  |te....x...+!....|
 CE0B  05 86 10 86 63 21 02 10 07 CE FB 85 04 86 63 40  |....c!........c@|
 CE1B  01 10 11 CE 5E 87 77 87 2C 04 10 1B CE 09 A3 22  |....^.w.,......"|
 CE2B  A3 74 75 63 6B 04 10 24 CE 5E 96 79 96 2D 72 6F  |.tuck..$.^.y.-ro|
 CE3B  74 03 10 30 CE D9 9A F4 9A 72 6F 74 03 10 3C CE  |t..0.....rot..<.|
 CE4B  32 96 3F 96 6E 69 70 02 01 47 CE FF 99 13 9A 72  |2.?.nip..G.....r|
 CE5B  40 02 01 52 CE 14 9A 24 9A 72 3E 02 11 5C CE EC  |@..R...$.r>..\..|
 CE6B  A2 FF A2 3E 72 04 10 66 CE 15 98 22 98 6F 76 65  |...>r..f...".ove|
 CE7B  72 01 10 70 CE 70 8F 82 8F 40 01 10 7C CE 09 A1  |r..p.p...@..|...|
 CE8B  1E A1 21 04 10 85 CE 2A A1 3D A1 73 77 61 70 03  |..!....*.=.swap.|
 CE9B  10 8E CE 9F 8D AC 8D 64 75 70 04 10 9A CE 1E 8D  |.......dup......|
 CEAB  23 8D 64 72 6F 70 05 00 00 00 94 A6 EF A6 77 6F  |#.drop........wo|
 CEBB  72 64 73 0E 00 B1 CE 23 A7 29 A7 66 6F 72 74 68  |rds....#.).forth|
 CECB  2D 77 6F 72 64 6C 69 73 74 05 00 BE CE B8 90 BE  |-wordlist.......|
 CEDB  90 66 6F 72 74 68 09 00 D4 CE 9D 9C D0 9C 73 65  |.forth........se|
 CEEB  74 2D 6F 72 64 65 72 0C 00 00 00 81 A7 9C A7 65  |t-order........e|
 CEFB  6E 74 65 72 2D 73 63 72 65 65 6E 0C 00 F2 CE 9D  |nter-screen.....|
 CF0B  A7 AE A7 65 72 61 73 65 2D 73 63 72 65 65 6E 02  |...erase-screen.|
 CF1B  00 06 CF AF A7 C0 A7 65 6C 01 00 1A CF C1 A7 3C  |.......el......<|
 CF2B  A8 6C 04 10 24 CF 3D A8 55 A8 6C 69 6E 65 01 00  |.l..$.=.U.line..|
 CF3B  2D CF 56 A8 9B A8 6F 05 04 4F CF 03 A9 08 A9 61  |-.V...o..O.....a|
 CF4B  64 63 2E 23 05 04 5C CF 08 A9 0D A9 61 64 63 2E  |dc.#..\.....adc.|
 CF5B  78 05 04 69 CF 0D A9 12 A9 61 64 63 2E 79 05 04  |x..i.....adc.y..|
 CF6B  76 CF 12 A9 17 A9 61 64 63 2E 7A 06 04 84 CF 17  |v.....adc.z.....|
 CF7B  A9 1C A9 61 64 63 2E 7A 69 07 04 93 CF 1C A9 21  |...adc.zi......!|
 CF8B  A9 61 64 63 2E 7A 69 79 06 04 A1 CF 21 A9 26 A9  |.adc.ziy....!.&.|
 CF9B  61 64 63 2E 7A 78 07 04 B0 CF 26 A9 2B A9 61 64  |adc.zx....&.+.ad|
 CFAB  63 2E 7A 78 69 04 04 BC CF 2B A9 30 A9 61 6E 64  |c.zxi....+.0.and|
 CFBB  2E 05 04 C9 CF 30 A9 35 A9 61 6E 64 2E 23 05 04  |.....0.5.and.#..|
 CFCB  D6 CF 35 A9 3A A9 61 6E 64 2E 78 05 04 E3 CF 3A  |..5.:.and.x....:|
 CFDB  A9 3F A9 61 6E 64 2E 79 05 04 F0 CF 3F A9 44 A9  |.?.and.y....?.D.|
 CFEB  61 6E 64 2E 7A 06 04 FE CF 44 A9 49 A9 61 6E 64  |and.z....D.I.and|
 CFFB  2E 7A 69 07 04 0D D0 49 A9 4E A9 61 6E 64 2E 7A  |.zi....I.N.and.z|
 D00B  69 79 06 04 1B D0 4E A9 53 A9 61 6E 64 2E 7A 78  |iy....N.S.and.zx|
 D01B  07 04 2A D0 53 A9 58 A9 61 6E 64 2E 7A 78 69 03  |..*.S.X.and.zxi.|
 D02B  04 35 D0 58 A9 5D A9 61 73 6C 05 04 42 D0 5D A9  |.5.X.].asl..B.].|
 D03B  62 A9 61 73 6C 2E 61 05 04 4F D0 62 A9 67 A9 61  |b.asl.a..O.b.g.a|
 D04B  73 6C 2E 78 05 04 5C D0 67 A9 6C A9 61 73 6C 2E  |sl.x..\.g.l.asl.|
 D05B  7A 06 04 6A D0 6C A9 71 A9 61 73 6C 2E 7A 78 03  |z..j.l.q.asl.zx.|
 D06B  04 75 D0 71 A9 76 A9 62 63 63 03 04 80 D0 76 A9  |.u.q.v.bcc....v.|
 D07B  7D A9 62 63 73 03 04 8B D0 7D A9 82 A9 62 65 71  |}.bcs....}...beq|
 D08B  03 04 96 D0 82 A9 87 A9 62 69 74 05 04 A3 D0 87  |........bit.....|
 D09B  A9 8C A9 62 69 74 2E 23 05 04 B0 D0 8C A9 91 A9  |...bit.#........|
 D0AB  62 69 74 2E 78 05 04 BD D0 91 A9 96 A9 62 69 74  |bit.x........bit|
 D0BB  2E 7A 06 04 CB D0 96 A9 9B A9 62 69 74 2E 7A 78  |.z........bit.zx|
 D0CB  03 04 D6 D0 9B A9 A0 A9 62 6D 69 03 04 E1 D0 A0  |........bmi.....|
 D0DB  A9 A5 A9 62 6E 65 03 04 EC D0 A5 A9 AA A9 62 70  |...bne........bp|
 D0EB  6C 03 04 F7 D0 AA A9 AF A9 62 72 61 03 04 02 D1  |l........bra....|
 D0FB  AF A9 B4 A9 62 72 6B 03 04 0D D1 B4 A9 B9 A9 62  |....brk........b|
 D10B  76 63 03 04 18 D1 B9 A9 BE A9 62 76 73 03 04 23  |vc........bvs..#|
 D11B  D1 BE A9 C3 A9 63 6C 63 03 04 2E D1 C3 A9 C8 A9  |.....clc........|
 D12B  63 6C 64 03 04 39 D1 C8 A9 CD A9 63 6C 69 03 04  |cld..9.....cli..|
 D13B  44 D1 CD A9 D2 A9 63 6C 76 03 04 4F D1 D2 A9 D7  |D.....clv..O....|
 D14B  A9 63 6D 70 05 04 5C D1 D7 A9 DC A9 63 6D 70 2E  |.cmp..\.....cmp.|
 D15B  23 05 04 69 D1 DC A9 E1 A9 63 6D 70 2E 78 05 04  |#..i.....cmp.x..|
 D16B  76 D1 E1 A9 E6 A9 63 6D 70 2E 79 05 04 83 D1 E6  |v.....cmp.y.....|
 D17B  A9 EB A9 63 6D 70 2E 7A 06 04 91 D1 EB A9 F0 A9  |...cmp.z........|
 D18B  63 6D 70 2E 7A 69 07 04 A0 D1 F0 A9 F5 A9 63 6D  |cmp.zi........cm|
 D19B  70 2E 7A 69 79 06 04 AE D1 F5 A9 FA A9 63 6D 70  |p.ziy........cmp|
 D1AB  2E 7A 78 07 04 BD D1 FA A9 FF A9 63 6D 70 2E 7A  |.zx........cmp.z|
 D1BB  78 69 03 04 C8 D1 FF A9 04 AA 63 70 78 05 04 D5  |xi........cpx...|
 D1CB  D1 04 AA 09 AA 63 70 78 2E 23 05 04 E2 D1 09 AA  |.....cpx.#......|
 D1DB  0E AA 63 70 78 2E 7A 03 04 ED D1 0E AA 15 AA 63  |..cpx.z........c|
 D1EB  70 79 05 04 FA D1 15 AA 1A AA 63 70 79 2E 23 05  |py........cpy.#.|
 D1FB  04 07 D2 1A AA 1F AA 63 70 79 2E 7A 03 04 12 D2  |.......cpy.z....|
 D20B  1F AA 24 AA 64 65 63 05 04 1F D2 24 AA 29 AA 64  |..$.dec....$.).d|
 D21B  65 63 2E 61 05 04 2C D2 29 AA 2E AA 64 65 63 2E  |ec.a..,.)...dec.|
 D22B  78 05 04 39 D2 2E AA 33 AA 64 65 63 2E 7A 06 04  |x..9...3.dec.z..|
 D23B  47 D2 33 AA 38 AA 64 65 63 2E 7A 78 03 04 52 D2  |G.3.8.dec.zx..R.|
 D24B  38 AA 3D AA 64 65 78 03 04 5D D2 3D AA 42 AA 64  |8.=.dex..].=.B.d|
 D25B  65 79 03 04 68 D2 42 AA 47 AA 65 6F 72 05 04 75  |ey..h.B.G.eor..u|
 D26B  D2 47 AA 4C AA 65 6F 72 2E 23 05 04 82 D2 4C AA  |.G.L.eor.#....L.|
 D27B  51 AA 65 6F 72 2E 78 05 04 8F D2 51 AA 56 AA 65  |Q.eor.x....Q.V.e|
 D28B  6F 72 2E 79 05 04 9C D2 56 AA 5B AA 65 6F 72 2E  |or.y....V.[.eor.|
 D29B  7A 06 04 AA D2 5B AA 60 AA 65 6F 72 2E 7A 69 07  |z....[.`.eor.zi.|
 D2AB  04 B9 D2 60 AA 65 AA 65 6F 72 2E 7A 69 79 06 04  |...`.e.eor.ziy..|
 D2BB  C7 D2 65 AA 6A AA 65 6F 72 2E 7A 78 07 04 D6 D2  |..e.j.eor.zx....|
 D2CB  6A AA 6F AA 65 6F 72 2E 7A 78 69 03 04 E1 D2 6F  |j.o.eor.zxi....o|
 D2DB  AA 74 AA 69 6E 63 05 04 EE D2 74 AA 79 AA 69 6E  |.t.inc....t.y.in|
 D2EB  63 2E 61 05 04 FB D2 79 AA 7E AA 69 6E 63 2E 78  |c.a....y.~.inc.x|
 D2FB  05 04 08 D3 7E AA 83 AA 69 6E 63 2E 7A 06 04 16  |....~...inc.z...|
 D30B  D3 83 AA 88 AA 69 6E 63 2E 7A 78 03 04 21 D3 88  |.....inc.zx..!..|
 D31B  AA 8D AA 69 6E 78 03 04 2C D3 8D AA 92 AA 69 6E  |...inx..,.....in|
 D32B  79 03 04 37 D3 92 AA 97 AA 6A 6D 70 05 04 44 D3  |y..7.....jmp..D.|
 D33B  97 AA 9C AA 6A 6D 70 2E 69 06 04 52 D3 9C AA A1  |....jmp.i..R....|
 D34B  AA 6A 6D 70 2E 78 69 03 04 5D D3 A1 AA A6 AA 6A  |.jmp.xi..].....j|
 D35B  73 72 03 04 68 D3 A6 AA AB AA 6C 64 61 05 04 75  |sr..h.....lda..u|
 D36B  D3 AB AA B0 AA 6C 64 61 2E 23 05 04 82 D3 B0 AA  |.....lda.#......|
 D37B  B5 AA 6C 64 61 2E 78 05 04 8F D3 B5 AA BA AA 6C  |..lda.x........l|
 D38B  64 61 2E 79 05 04 9C D3 BA AA BF AA 6C 64 61 2E  |da.y........lda.|
 D39B  7A 06 04 AA D3 BF AA C4 AA 6C 64 61 2E 7A 69 07  |z........lda.zi.|
 D3AB  04 B9 D3 C4 AA C9 AA 6C 64 61 2E 7A 69 79 06 04  |.......lda.ziy..|
 D3BB  C7 D3 C9 AA CE AA 6C 64 61 2E 7A 78 07 04 D6 D3  |......lda.zx....|
 D3CB  CE AA D3 AA 6C 64 61 2E 7A 78 69 03 04 E1 D3 D3  |....lda.zxi.....|
 D3DB  AA D8 AA 6C 64 78 05 04 EE D3 D8 AA DD AA 6C 64  |...ldx........ld|
 D3EB  78 2E 23 05 04 FB D3 DD AA E2 AA 6C 64 78 2E 79  |x.#........ldx.y|
 D3FB  05 04 08 D4 E2 AA E7 AA 6C 64 78 2E 7A 06 04 16  |........ldx.z...|
 D40B  D4 E7 AA EC AA 6C 64 78 2E 7A 79 03 04 21 D4 EC  |.....ldx.zy..!..|
 D41B  AA F1 AA 6C 64 79 05 04 2E D4 F1 AA F6 AA 6C 64  |...ldy........ld|
 D42B  79 2E 23 05 04 3B D4 F6 AA FB AA 6C 64 79 2E 78  |y.#..;.....ldy.x|
 D43B  05 04 48 D4 FB AA 00 AB 6C 64 79 2E 7A 06 04 56  |..H.....ldy.z..V|
 D44B  D4 00 AB 05 AB 6C 64 79 2E 7A 78 03 04 61 D4 05  |.....ldy.zx..a..|
 D45B  AB 0A AB 6C 73 72 05 04 6E D4 0A AB 0F AB 6C 73  |...lsr..n.....ls|
 D46B  72 2E 61 05 04 7B D4 0F AB 14 AB 6C 73 72 2E 78  |r.a..{.....lsr.x|
 D47B  05 04 88 D4 14 AB 19 AB 6C 73 72 2E 7A 06 04 96  |........lsr.z...|
 D48B  D4 19 AB 1E AB 6C 73 72 2E 7A 78 03 04 A1 D4 1E  |.....lsr.zx.....|
 D49B  AB 23 AB 6E 6F 70 03 04 AC D4 23 AB 28 AB 6F 72  |.#.nop....#.(.or|
 D4AB  61 05 04 B9 D4 28 AB 2D AB 6F 72 61 2E 23 05 04  |a....(.-.ora.#..|
 D4BB  C6 D4 2D AB 32 AB 6F 72 61 2E 78 05 04 D3 D4 32  |..-.2.ora.x....2|
 D4CB  AB 37 AB 6F 72 61 2E 79 05 04 E0 D4 37 AB 3C AB  |.7.ora.y....7.<.|
 D4DB  6F 72 61 2E 7A 06 04 EE D4 3C AB 43 AB 6F 72 61  |ora.z....<.C.ora|
 D4EB  2E 7A 69 07 04 FD D4 43 AB 48 AB 6F 72 61 2E 7A  |.zi....C.H.ora.z|
 D4FB  69 79 06 04 0B D5 48 AB 4D AB 6F 72 61 2E 7A 78  |iy....H.M.ora.zx|
 D50B  07 04 1A D5 4D AB 52 AB 6F 72 61 2E 7A 78 69 03  |....M.R.ora.zxi.|
 D51B  04 25 D5 52 AB 57 AB 70 68 61 03 04 30 D5 57 AB  |.%.R.W.pha..0.W.|
 D52B  5C AB 70 68 70 03 04 3B D5 5C AB 61 AB 70 68 78  |\.php..;.\.a.phx|
 D53B  03 04 46 D5 61 AB 66 AB 70 68 79 03 04 51 D5 66  |..F.a.f.phy..Q.f|
 D54B  AB 6B AB 70 6C 61 03 04 5C D5 6B AB 70 AB 70 6C  |.k.pla..\.k.p.pl|
 D55B  70 03 04 67 D5 70 AB 75 AB 70 6C 78 03 04 72 D5  |p..g.p.u.plx..r.|
 D56B  75 AB 7A AB 70 6C 79 03 04 7D D5 7A AB 7F AB 72  |u.z.ply..}.z...r|
 D57B  6F 6C 05 04 8A D5 7F AB 84 AB 72 6F 6C 2E 61 05  |ol........rol.a.|
 D58B  04 97 D5 84 AB 89 AB 72 6F 6C 2E 78 05 04 A4 D5  |.......rol.x....|
 D59B  89 AB 8E AB 72 6F 6C 2E 7A 06 04 B2 D5 8E AB 93  |....rol.z.......|
 D5AB  AB 72 6F 6C 2E 7A 78 03 04 BD D5 93 AB 98 AB 72  |.rol.zx........r|
 D5BB  6F 72 05 04 CA D5 98 AB 9D AB 72 6F 72 2E 61 05  |or........ror.a.|
 D5CB  04 D7 D5 9D AB A2 AB 72 6F 72 2E 78 05 04 E4 D5  |.......ror.x....|
 D5DB  A2 AB A7 AB 72 6F 72 2E 7A 06 04 F2 D5 A7 AB AC  |....ror.z.......|
 D5EB  AB 72 6F 72 2E 7A 78 03 04 FD D5 AC AB B1 AB 72  |.ror.zx........r|
 D5FB  74 69 03 04 08 D6 B1 AB B6 AB 72 74 73 03 04 13  |ti........rts...|
 D60B  D6 B6 AB BB AB 73 62 63 05 04 20 D6 BB AB C0 AB  |.....sbc.. .....|
 D61B  73 62 63 2E 23 05 04 2D D6 C0 AB C5 AB 73 62 63  |sbc.#..-.....sbc|
 D62B  2E 78 05 04 3A D6 C5 AB CA AB 73 62 63 2E 79 05  |.x..:.....sbc.y.|
 D63B  04 47 D6 CA AB CF AB 73 62 63 2E 7A 06 04 55 D6  |.G.....sbc.z..U.|
 D64B  CF AB D4 AB 73 62 63 2E 7A 69 07 04 64 D6 D4 AB  |....sbc.zi..d...|
 D65B  D9 AB 73 62 63 2E 7A 69 79 06 04 72 D6 D9 AB DE  |..sbc.ziy..r....|
 D66B  AB 73 62 63 2E 7A 78 07 04 81 D6 DE AB E2 AB 73  |.sbc.zx........s|
 D67B  62 63 2E 7A 78 69 03 04 8C D6 E2 AB E6 AB 73 65  |bc.zxi........se|
 D68B  63 03 04 97 D6 E6 AB EA AB 73 65 64 03 04 A2 D6  |c........sed....|
 D69B  EA AB EE AB 73 65 69 03 04 AD D6 EE AB F2 AB 73  |....sei........s|
 D6AB  74 61 05 04 BA D6 F2 AB F6 AB 73 74 61 2E 78 05  |ta........sta.x.|
 D6BB  04 C7 D6 F6 AB FA AB 73 74 61 2E 79 05 04 D4 D6  |.......sta.y....|
 D6CB  FA AB FE AB 73 74 61 2E 7A 06 04 E2 D6 FE AB 02  |....sta.z.......|
 D6DB  AC 73 74 61 2E 7A 69 07 04 F1 D6 02 AC 06 AC 73  |.sta.zi........s|
 D6EB  74 61 2E 7A 69 79 06 04 FF D6 06 AC 0A AC 73 74  |ta.ziy........st|
 D6FB  61 2E 7A 78 07 04 0E D7 0A AC 0E AC 73 74 61 2E  |a.zx........sta.|
 D70B  7A 78 69 03 04 19 D7 0E AC 12 AC 73 74 78 05 04  |zxi........stx..|
 D71B  26 D7 12 AC 16 AC 73 74 78 2E 7A 06 04 34 D7 16  |&.....stx.z..4..|
 D72B  AC 1A AC 73 74 78 2E 7A 79 03 04 3F D7 1A AC 1E  |...stx.zy..?....|
 D73B  AC 73 74 79 05 04 4C D7 1E AC 22 AC 73 74 79 2E  |.sty..L...".sty.|
 D74B  7A 06 04 5A D7 22 AC 26 AC 73 74 79 2E 7A 78 03  |z..Z.".&.sty.zx.|
 D75B  04 65 D7 26 AC 2A AC 73 74 7A 05 04 72 D7 2A AC  |.e.&.*.stz..r.*.|
 D76B  2E AC 73 74 7A 2E 78 05 04 7F D7 2E AC 32 AC 73  |..stz.x......2.s|
 D77B  74 7A 2E 7A 06 04 8D D7 32 AC 36 AC 73 74 7A 2E  |tz.z....2.6.stz.|
 D78B  7A 78 03 04 98 D7 36 AC 3A AC 74 61 78 03 04 A3  |zx....6.:.tax...|
 D79B  D7 3A AC 3E AC 74 61 79 03 04 AE D7 3E AC 42 AC  |.:.>.tay....>.B.|
 D7AB  74 72 62 05 04 BB D7 42 AC 46 AC 74 72 62 2E 7A  |trb....B.F.trb.z|
 D7BB  03 04 C6 D7 46 AC 4A AC 74 73 62 05 04 D3 D7 4A  |....F.J.tsb....J|
 D7CB  AC 4E AC 74 73 62 2E 7A 03 04 DE D7 4E AC 52 AC  |.N.tsb.z....N.R.|
 D7DB  74 73 78 03 04 E9 D7 52 AC 56 AC 74 78 61 03 04  |tsx....R.V.txa..|
 D7EB  F4 D7 56 AC 5A AC 74 78 73 03 04 FF D7 5A AC 5E  |..V.Z.txs....Z.^|
 D7FB  AC 74 79 61 03 04 0A D8 62 91 6C 91 2D 2D 3E 02  |.tya....b.l.-->.|
 D80B  04 14 D8 AF AC AF AC 3C 6A 02 04 1E D8 B0 AC B8  |.......<j.......|
 D81B  AC 3C 62 06 04 00 00 98 AC A7 AC 70 75 73 68 2D  |.<b........push-|
 D82B  61 46 D8 4A D8 54 D8 BA D8 5F D8 83 D8 B2 D8 A7  |aF.J.T..._......|
 D83B  D8 C1 D8 C7 D8 E3 D8 E8 D8 ED D8 20 6F 6B 00 20  |........... ok. |
 D84B  63 6F 6D 70 69 6C 65 64 00 72 65 64 65 66 69 6E  |compiled.redefin|
 D85B  65 64 20 00 30 31 32 33 34 35 36 37 38 39 61 62  |ed .0123456789ab|
 D86B  63 64 65 66 67 68 69 6A 6B 6C 6D 6E 6F 70 71 72  |cdefghijklmnopqr|
 D87B  73 74 75 76 77 78 79 7A 30 31 32 33 34 35 36 37  |stuvwxyz01234567|
 D88B  38 39 41 42 43 44 45 46 47 48 49 4A 4B 4C 4D 4E  |89ABCDEFGHIJKLMN|
 D89B  4F 50 51 52 53 54 55 56 57 58 59 5A 41 73 73 65  |OPQRSTUVWXYZAsse|
 D8AB  6D 62 6C 65 72 20 00 45 64 69 74 6F 72 20 00 46  |mbler .Editor .F|
 D8BB  6F 72 74 68 20 00 52 6F 6F 74 20 00 66 6C 61 67  |orth .Root .flag|
 D8CB  73 20 28 43 4F 20 41 4E 20 49 4D 20 4E 4E 20 55  |s (CO AN IM NN U|
 D8DB  46 20 48 43 29 3A 20 00 6E 74 3A 20 00 78 74 3A  |F HC): .nt: .xt:|
 D8EB  20 00 73 69 7A 65 20 28 64 65 63 69 6D 61 6C 29  | .size (decimal)|
 D8FB  3A 20 00 18 D9 39 D9 59 D9 7A D9 97 D9 A8 D9 B8  |: ...9.Y.z......|
 D90B  D9 E6 D9 FE D9 0D DA 1D DA 39 DA 50 DA 41 4C 4C  |.........9.P.ALL|
 D91B  4F 54 20 75 73 69 6E 67 20 61 6C 6C 20 61 76 61  |OT using all ava|
 D92B  69 6C 61 62 6C 65 20 6D 65 6D 6F 72 79 00 49 6C  |ilable memory.Il|
 D93B  6C 65 67 61 6C 20 53 4F 55 52 43 45 2D 49 44 20  |legal SOURCE-ID |
 D94B  64 75 72 69 6E 67 20 52 45 46 49 4C 4C 00 49 6E  |during REFILL.In|
 D95B  74 65 72 70 72 65 74 69 6E 67 20 61 20 63 6F 6D  |terpreting a com|
 D96B  70 69 6C 65 2D 6F 6E 6C 79 20 77 6F 72 64 00 44  |pile-only word.D|
 D97B  45 46 45 52 65 64 20 77 6F 72 64 20 6E 6F 74 20  |EFERed word not |
 D98B  64 65 66 69 6E 65 64 20 79 65 74 00 44 69 76 69  |defined yet.Divi|
 D99B  73 69 6F 6E 20 62 79 20 7A 65 72 6F 00 50 61 72  |sion by zero.Par|
 D9AB  73 69 6E 67 20 66 61 69 6C 75 72 65 00 51 55 49  |sing failure.QUI|
 D9BB  54 20 63 6F 75 6C 64 20 6E 6F 74 20 67 65 74 20  |T could not get |
 D9CB  69 6E 70 75 74 20 28 52 45 46 49 4C 4C 20 72 65  |input (REFILL re|
 D9DB  74 75 72 6E 65 64 20 2D 31 29 00 41 6C 72 65 61  |turned -1).Alrea|
 D9EB  64 79 20 69 6E 20 63 6F 6D 70 69 6C 65 20 6D 6F  |dy in compile mo|
 D9FB  64 65 00 55 6E 64 65 66 69 6E 65 64 20 77 6F 72  |de.Undefined wor|
 DA0B  64 00 53 74 61 63 6B 20 75 6E 64 65 72 66 6C 6F  |d.Stack underflo|
 DA1B  77 00 4D 61 78 20 6D 65 6D 6F 72 79 20 66 72 65  |w.Max memory fre|
 DA2B  65 64 20 77 69 74 68 20 41 4C 4C 4F 54 00 4E 6F  |ed with ALLOT.No|
 DA3B  20 77 6F 72 64 6C 69 73 74 73 20 61 76 61 69 6C  | wordlists avail|
 DA4B  61 62 6C 65 00 50 6C 65 61 73 65 20 61 73 73 69  |able.Please assi|
 DA5B  67 6E 20 76 65 63 74 6F 72 73 20 42 4C 4F 43 4B  |gn vectors BLOCK|
 DA6B  2D 52 45 41 44 2D 56 45 43 54 4F 52 20 61 6E 64  |-READ-VECTOR and|
 DA7B  20 42 4C 4F 43 4B 2D 57 52 49 54 45 2D 56 45 43  | BLOCK-WRITE-VEC|
 DA8B  54 4F 52 00 0F 2F 43 4F 55 4E 54 45 44 2D 53 54  |TOR../COUNTED-ST|
 DA9B  52 49 4E 47 05 2F 48 4F 4C 44 04 2F 50 41 44 11  |RING./HOLD./PAD.|
 DAAB  41 44 44 52 45 53 53 2D 55 4E 49 54 2D 42 49 54  |ADDRESS-UNIT-BIT|
 DABB  53 07 46 4C 4F 4F 52 45 44 08 4D 41 58 2D 43 48  |S.FLOORED.MAX-CH|
 DACB  41 52 05 4D 41 58 2D 4E 05 4D 41 58 2D 55 12 52  |AR.MAX-N.MAX-U.R|
 DADB  45 54 55 52 4E 2D 53 54 41 43 4B 2D 43 45 4C 4C  |ETURN-STACK-CELL|
 DAEB  53 0B 53 54 41 43 4B 2D 43 45 4C 4C 53 09 57 4F  |S.STACK-CELLS.WO|
 DAFB  52 44 4C 49 53 54 53 05 4D 41 58 2D 44 06 4D 41  |RDLISTS.MAX-D.MA|
 DB0B  58 2D 55 44                                      |X-UD            |
 DB0F  48        PHA  
 DB10  A9 20     LDA  #$20
 DB12  80 03     BRA  $DB17
 DB14  48        PHA  
 DB15  A9 4C     LDA  #$4C
 DB17  20 1F DB  JSR  $DB1F
 DB1A  68        PLA  
 DB1B  20 1F DB  JSR  $DB1F
 DB1E  98        TYA  
 DB1F  92 00     STA  ($00)
 DB21  E6 00     INC  $00
 DB23  D0 02     BNE  $DB27
 DB25  E6 01     INC  $01
 DB27  60        RTS  
 DB28  CA        DEX  
 DB29  CA        DEX  
 DB2A  68        PLA  
 DB2B  85 24     STA  $24
 DB2D  68        PLA  
 DB2E  85 25     STA  $25
 DB30  A0 01     LDY  #$01
 DB32  B1 24     LDA  ($24), Y
 DB34  95 00     STA  $00, X
 DB36  C8        INY  
 DB37  B1 24     LDA  ($24), Y
 DB39  95 01     STA  $01, X
 DB3B  60        RTS  
 DB3C  68        PLA  
 DB3D  85 24     STA  $24
 DB3F  68        PLA  
 DB40  85 25     STA  $25
 DB42  A0 01     LDY  #$01
 DB44  B1 24     LDA  ($24), Y
 DB46  85 26     STA  $26
 DB48  C8        INY  
 DB49  B1 24     LDA  ($24), Y
 DB4B  85 27     STA  $27
 DB4D  6C 26 00  JMP  ($0026)
 DB50  A9 03     LDA  #$03
 DB52  4C 82 DC  JMP  $DC82
 DB55  7A        PLY  
 DB56  68        PLA  
 DB57  C8        INY  
 DB58  D0 01     BNE  $DB5B
 DB5A  1A        INC  
 DB5B  84 26     STY  $26
 DB5D  85 27     STA  $27
 DB5F  CA        DEX  
 DB60  CA        DEX  
 DB61  7A        PLY  
 DB62  68        PLA  
 DB63  C8        INY  
 DB64  D0 01     BNE  $DB67
 DB66  1A        INC  
 DB67  94 00     STY  $00, X
 DB69  95 01     STA  $01, X
 DB6B  6C 26 00  JMP  ($0026)
 DB6E  7A        PLY  
 DB6F  68        PLA  
 DB70  C8        INY  
 DB71  D0 01     BNE  $DB74
 DB73  1A        INC  
 DB74  CA        DEX  
 DB75  CA        DEX  
 DB76  95 01     STA  $01, X
 DB78  98        TYA  
 DB79  95 00     STA  $00, X
 DB7B  60        RTS  
 DB7C  48        PHA  
 DB7D  4A        LSR  
 DB7E  4A        LSR  
 DB7F  4A        LSR  
 DB80  4A        LSR  
 DB81  20 85 DB  JSR  $DB85
 DB84  68        PLA  
 DB85  29 0F     AND  #$0F
 DB87  09 30     ORA  #$30
 DB89  C9 3A     CMP  #$3A
 DB8B  90 02     BCC  $DB8F
 DB8D  69 06     ADC  #$06
 DB8F  4C E6 8D  JMP  $8DE6
 DB92  60        RTS  
 DB93  B5 00     LDA  $00, X
 DB95  D5 02     CMP  $02, X
 DB97  F0 0A     BEQ  $DBA3
 DB99  B5 01     LDA  $01, X
 DB9B  F5 03     SBC  $03, X
 DB9D  09 01     ORA  #$01
 DB9F  70 08     BVS  $DBA9
 DBA1  80 08     BRA  $DBAB
 DBA3  B5 01     LDA  $01, X
 DBA5  F5 03     SBC  $03, X
 DBA7  50 04     BVC  $DBAD
 DBA9  49 80     EOR  #$80
 DBAB  09 01     ORA  #$01
 DBAD  60        RTS  
 DBAE  A0 04     LDY  #$04
 DBB0  B1 1E     LDA  ($1E), Y
 DBB2  0A        ASL  
 DBB3  18        CLC  
 DBB4  69 06     ADC  #$06
 DBB6  A8        TAY  
 DBB7  B1 1E     LDA  ($1E), Y
 DBB9  85 02     STA  $02
 DBBB  C8        INY  
 DBBC  B1 1E     LDA  ($1E), Y
 DBBE  85 03     STA  $03
 DBC0  60        RTS  
 DBC1  A0 04     LDY  #$04
 DBC3  B1 1E     LDA  ($1E), Y
 DBC5  0A        ASL  
 DBC6  18        CLC  
 DBC7  69 06     ADC  #$06
 DBC9  A8        TAY  
 DBCA  A5 02     LDA  $02
 DBCC  91 1E     STA  ($1E), Y
 DBCE  C8        INY  
 DBCF  A5 03     LDA  $03
 DBD1  91 1E     STA  ($1E), Y
 DBD3  60        RTS  
 DBD4  20 61 98  JSR  $9861
 DBD7  B5 00     LDA  $00, X
 DBD9  15 01     ORA  $01, X
 DBDB  F0 70     BEQ  $DC4D
 DBDD  20 34 A3  JSR  $A334
 DBE0  20 CB 8F  JSR  $8FCB
 DBE3  B5 00     LDA  $00, X
 DBE5  15 01     ORA  $01, X
 DBE7  D0 28     BNE  $DC11
 DBE9  E8        INX  
 DBEA  E8        INX  
 DBEB  20 7A 96  JSR  $967A
 DBEE  A5 16     LDA  $16
 DBF0  F0 E2     BEQ  $DBD4
 DBF2  A9 20     LDA  #$20
 DBF4  24 20     BIT  $20
 DBF6  F0 0D     BEQ  $DC05
 DBF8  20 2A A1  JSR  $A12A
 DBFB  A0 93     LDY  #$93
 DBFD  A9 88     LDA  #$88
 DBFF  20 0F DB  JSR  $DB0F
 DC02  20 5E 87  JSR  $875E
 DC05  A0 93     LDY  #$93
 DC07  A9 88     LDA  #$88
 DC09  20 0F DB  JSR  $DB0F
 DC0C  20 5E 87  JSR  $875E
 DC0F  80 C3     BRA  $DBD4
 DC11  B5 00     LDA  $00, X
 DC13  95 04     STA  $04, X
 DC15  B5 01     LDA  $01, X
 DC17  95 05     STA  $05, X
 DC19  E8        INX  
 DC1A  E8        INX  
 DC1B  E8        INX  
 DC1C  E8        INX  
 DC1D  B5 00     LDA  $00, X
 DC1F  85 22     STA  $22
 DC21  B5 01     LDA  $01, X
 DC23  85 23     STA  $23
 DC25  20 D1 95  JSR  $95D1
 DC28  A5 16     LDA  $16
 DC2A  D0 13     BNE  $DC3F
 DC2C  A0 01     LDY  #$01
 DC2E  B1 22     LDA  ($22), Y
 DC30  29 01     AND  #$01
 DC32  F0 05     BEQ  $DC39
 DC34  A9 02     LDA  #$02
 DC36  4C 82 DC  JMP  $DC82
 DC39  20 2D 8F  JSR  $8F2D
 DC3C  4C D4 DB  JMP  $DBD4
 DC3F  A0 01     LDY  #$01
 DC41  B1 22     LDA  ($22), Y
 DC43  29 04     AND  #$04
 DC45  D0 F2     BNE  $DC39
 DC47  20 DD 87  JSR  $87DD
 DC4A  4C D4 DB  JMP  $DBD4
 DC4D  E8        INX  
 DC4E  E8        INX  
 DC4F  E8        INX  
 DC50  E8        INX  
 DC51  60        RTS  
 DC52  C9 20     CMP  #$20
 DC54  90 08     BCC  $DC5E
 DC56  C9 7F     CMP  #$7F
 DC58  B0 03     BCS  $DC5D
 DC5A  38        SEC  
 DC5B  80 01     BRA  $DC5E
 DC5D  18        CLC  
 DC5E  60        RTS  
 DC5F  C9 00     CMP  #$00
 DC61  90 08     BCC  $DC6B
 DC63  C9 21     CMP  #$21
 DC65  B0 03     BCS  $DC6A
 DC67  38        SEC  
 DC68  80 01     BRA  $DC6B
 DC6A  18        CLC  
 DC6B  60        RTS  
 DC6C  E0 77     CPX  #$77
 DC6E  10 10     BPL  $DC80
 DC70  60        RTS  
 DC71  E0 75     CPX  #$75
 DC73  10 0B     BPL  $DC80
 DC75  60        RTS  
 DC76  E0 73     CPX  #$73
 DC78  10 06     BPL  $DC80
 DC7A  60        RTS  
 DC7B  E0 71     CPX  #$71
 DC7D  10 01     BPL  $DC80
 DC7F  60        RTS  
 DC80  A9 09     LDA  #$09
 DC82  0A        ASL  
 DC83  A8        TAY  
 DC84  B9 FE D8  LDA  $D8FE, Y
 DC87  85 28     STA  $28
 DC89  C8        INY  
 DC8A  B9 FE D8  LDA  $D8FE, Y
 DC8D  85 29     STA  $29
 DC8F  20 A5 DC  JSR  $DCA5
 DC92  20 53 89  JSR  $8953
 DC95  4C 81 80  JMP  $8081
 DC98  0A        ASL  
 DC99  A8        TAY  
 DC9A  B9 2C D8  LDA  $D82C, Y
 DC9D  85 28     STA  $28
 DC9F  C8        INY  
 DCA0  B9 2C D8  LDA  $D82C, Y
 DCA3  85 29     STA  $29
 DCA5  A0 00     LDY  #$00
 DCA7  B1 28     LDA  ($28), Y
 DCA9  F0 06     BEQ  $DCB1
 DCAB  20 E6 8D  JSR  $8DE6
 DCAE  C8        INY  
 DCAF  80 F6     BRA  $DCA7
 DCB1  60        RTS  
 DCB2  20 98 DC  JSR  $DC98
 DCB5  4C 53 89  JMP  $8953
 DCB8  20 23 A7  JSR  $A723
 DCBB  20 4A 93  JSR  $934A
 DCBE  20 60 97  JSR  $9760
 DCC1  20 3E 97  JSR  $973E
 DCC4  4C 7F A4  JMP  $A47F
 DCC7  00 00 00 00 00 00 00 00 00 00 00 00 00 00 00 00  |................|
 DCD7  00 00 00 00 00 00 00 00 00 00 00 00 00 00 00 00  |................|
 DCE7  00 00 00 00 00 00 00 00 00 00 00 00 00 00 00 00  |................|
 DCF7  00 00 00 00 00 00 00 00 00 00 00 00 00 00 00 00  |................|
 DD07  00 00 00 00 00 00 00 00 00 00 00 00 00 00 00 00  |................|
 DD17  00 00 00 00 00 00 00 00 00 00 00 00 00 00 00 00  |................|
 DD27  00 00 00 00 00 00 00 00 00 00 00 00 00 00 00 00  |................|
 DD37  00 00 00 00 00 00 00 00 00 00 00 00 00 00 00 00  |................|
 DD47  00 00 00 00 00 00 00 00 00 00 00 00 00 00 00 00  |................|
 DD57  00 00 00 00 00 00 00 00 00 00 00 00 00 00 00 00  |................|
 DD67  00 00 00 00 00 00 00 00 00 00 00 00 00 00 00 00  |................|
 DD77  00 00 00 00 00 00 00 00 00 00 00 00 00 00 00 00  |................|
 DD87  00 00 00 00 00 00 00 00 00 00 00 00 00 00 00 00  |................|
 DD97  00 00 00 00 00 00 00 00 00 00 00 00 00 00 00 00  |................|
 DDA7  00 00 00 00 00 00 00 00 00 00 00 00 00 00 00 00  |................|
 DDB7  00 00 00 00 00 00 00 00 00 00 00 00 00 00 00 00  |................|
 DDC7  00 00 00 00 00 00 00 00 00 00 00 00 00 00 00 00  |................|
 DDD7  00 00 00 00 00 00 00 00 00 00 00 00 00 00 00 00  |................|
 DDE7  00 00 00 00 00 00 00 00 00 00 00 00 00 00 00 00  |................|
 DDF7  00 00 00 00 00 00 00 00 00 00 00 00 00 00 00 00  |................|
 DE07  00 00 00 00 00 00 00 00 00 00 00 00 00 00 00 00  |................|
 DE17  00 00 00 00 00 00 00 00 00 00 00 00 00 00 00 00  |................|
 DE27  00 00 00 00 00 00 00 00 00 00 00 00 00 00 00 00  |................|
 DE37  00 00 00 00 00 00 00 00 00 00 00 00 00 00 00 00  |................|
 DE47  00 00 00 00 00 00 00 00 00 00 00 00 00 00 00 00  |................|
 DE57  00 00 00 00 00 00 00 00 00 00 00 00 00 00 00 00  |................|
 DE67  00 00 00 00 00 00 00 00 00 00 00 00 00 00 00 00  |................|
 DE77  00 00 00 00 00 00 00 00 00 00 00 00 00 00 00 00  |................|
 DE87  00 00 00 00 00 00 00 00 00 00 00 00 00 00 00 00  |................|
 DE97  00 00 00 00 00 00 00 00 00 00 00 00 00 00 00 00  |................|
 DEA7  00 00 00 00 00 00 00 00 00 00 00 00 00 00 00 00  |................|
 DEB7  00 00 00 00 00 00 00 00 00 00 00 00 00 00 00 00  |................|
 DEC7  00 00 00 00 00 00 00 00 00 00 00 00 00 00 00 00  |................|
 DED7  00 00 00 00 00 00 00 00 00 00 00 00 00 00 00 00  |................|
 DEE7  00 00 00 00 00 00 00 00 00 00 00 00 00 00 00 00  |................|
 DEF7  00 00 00 00 00 00 00 00 00 00 00 00 00 00 00 00  |................|
 DF07  00 00 00 00 00 00 00 00 00 00 00 00 00 00 00 00  |................|
 DF17  00 00 00 00 00 00 00 00 00 00 00 00 00 00 00 00  |................|
 DF27  00 00 00 00 00 00 00 00 00 00 00 00 00 00 00 00  |................|
 DF37  00 00 00 00 00 00 00 00 00 00 00 00 00 00 00 00  |................|
 DF47  00 00 00 00 00 00 00 00 00 00 00 00 00 00 00 00  |................|
 DF57  00 00 00 00 00 00 00 00 00 00 00 00 00 00 00 00  |................|
 DF67  00 00 00 00 00 00 00 00 00 00 00 00 00 00 00 00  |................|
 DF77  00 00 00 00 00 00 00 00 00 00 00 00 00 00 00 00  |................|
 DF87  00 00 00 00 00 00 00 00 00 00 00 00 00 00 00 00  |................|
 DF97  00 00 00 00 00 00 00 00 00 00 00 00 00 00 00 00  |................|
 DFA7  00 00 00 00 00 00 00 00 00 00 00 00 00 00 00 00  |................|
 DFB7  00 00 00 00 00 00 00 00 00 00 00 00 00 00 00 00  |................|
 DFC7  00 00 00 00 00 00 00 00 00 00 00 00 00 00 00 00  |................|
 DFD7  00 00 00 00 00 00 00 00 00 00 00 00 00 00 00 00  |................|
 DFE7  00 00 00 00 00 00 00 00 00 00 00 00 00 00 00 00  |................|
 DFF7  00 00 00 00 00 00 00 00 00                       |.........       |
 E000  DA        PHX  
 E001  5A        PHY  
 E002  A2 FF     LDX  #$FF
 E004  EA        NOP  
 E005  EA        NOP  
 E006  CA        DEX  
 E007  D0 FB     BNE  $E004
 E009  88        DEY  
 E00A  D0 F6     BNE  $E002
 E00C  7A        PLY  
 E00D  FA        PLX  
 E00E  60        RTS  
 E00F  48        PHA  
 E010  5A        PHY  
 E011  DA        PHX  
 E012  98        TYA  
 E013  AA        TAX  
 E014  A0 FF     LDY  #$FF
 E016  20 00 E0  JSR  $E000
 E019  CA        DEX  
 E01A  D0 F8     BNE  $E014
 E01C  FA        PLX  
 E01D  7A        PLY  
 E01E  68        PLA  
 E01F  60        RTS  
 E020  5A        PHY  
 E021  EA        NOP  
 E022  EA        NOP  
 E023  EA        NOP  
 E024  EA        NOP  
 E025  EA        NOP  
 E026  EA        NOP  
 E027  EA        NOP  
 E028  88        DEY  
 E029  D0 F6     BNE  $E021
 E02B  7A        PLY  
 E02C  60        RTS  
 E02D  78        SEI  
 E02E  A2 00     LDX  #$00
 E030  BD 3B E0  LDA  $E03B, X
 E033  F0 1A     BEQ  $E04F
 E035  20 30 E9  JSR  $E930
 E038  E8        INX  
 E039  80 F5     BRA  $E030
 E03B  44 65 74 65 63 74 69 6E 67 20 6B 65 79 62 6F 61  |Detecting keyboa|
 E04B  72 64 0D 00                                      |rd..            |
 E04F  AD 8E FF  LDA  $FF8E
 E052  09 88     ORA  #$88
 E054  8D 8E FF  STA  $FF8E
 E057  A9 00     LDA  #$00
 E059  8D 8C FF  STA  $FF8C
 E05C  85 83     STA  $83
 E05E  85 87     STA  $87
 E060  85 83     STA  $83
 E062  85 82     STA  $82
 E064  85 86     STA  $86
 E066  85 84     STA  $84
 E068  85 85     STA  $85
 E06A  85 88     STA  $88
 E06C  85 89     STA  $89
 E06E  85 8A     STA  $8A
 E070  85 8B     STA  $8B
 E072  85 8D     STA  $8D
 E074  20 53 E1  JSR  $E153
 E077  A9 00     LDA  #$00
 E079  85 88     STA  $88
 E07B  58        CLI  
 E07C  A0 0A     LDY  #$0A
 E07E  20 00 E0  JSR  $E000
 E081  E6 89     INC  $89
 E083  F0 19     BEQ  $E09E
 E085  A5 82     LDA  $82
 E087  D0 F3     BNE  $E07C
 E089  A6 88     LDX  $88
 E08B  E0 00     CPX  #$00
 E08D  F0 06     BEQ  $E095
 E08F  E0 01     CPX  #$01
 E091  F0 0B     BEQ  $E09E
 E093  80 09     BRA  $E09E
 E095  20 C0 E0  JSR  $E0C0
 E098  A9 01     LDA  #$01
 E09A  85 88     STA  $88
 E09C  80 DE     BRA  $E07C
 E09E  A9 00     LDA  #$00
 E0A0  8D 82 FF  STA  $FF82
 E0A3  8D 8C FF  STA  $FF8C
 E0A6  85 8B     STA  $8B
 E0A8  85 8A     STA  $8A
 E0AA  85 8C     STA  $8C
 E0AC  85 82     STA  $82
 E0AE  85 8A     STA  $8A
 E0B0  85 8D     STA  $8D
 E0B2  85 83     STA  $83
 E0B4  85 88     STA  $88
 E0B6  85 87     STA  $87
 E0B8  85 83     STA  $83
 E0BA  85 84     STA  $84
 E0BC  85 85     STA  $85
 E0BE  58        CLI  
 E0BF  60        RTS  
 E0C0  A9 00     LDA  #$00
 E0C2  85 89     STA  $89
 E0C4  A9 F0     LDA  #$F0
 E0C6  8D 81 FF  STA  $FF81
 E0C9  78        SEI  
 E0CA  20 F7 E0  JSR  $E0F7
 E0CD  A9 FF     LDA  #$FF
 E0CF  85 82     STA  $82
 E0D1  58        CLI  
 E0D2  60        RTS  
 E0D3  A2 00     LDX  #$00
 E0D5  BD E0 E0  LDA  $E0E0, X
 E0D8  F0 C4     BEQ  $E09E
 E0DA  20 30 E9  JSR  $E930
 E0DD  E8        INX  
 E0DE  80 F5     BRA  $E0D5
 E0E0  4E 6F 20 6B 65 79 62 6F 61 72 64 20 63 6F 6E 6E  |No keyboard conn|
 E0F0  65 63 74 65 64 0D 00                             |ected..         |
 E0F7  48        PHA  
 E0F8  5A        PHY  
 E0F9  A9 C0     LDA  #$C0
 E0FB  8D 8C FF  STA  $FF8C
 E0FE  A0 80     LDY  #$80
 E100  20 00 E0  JSR  $E000
 E103  AD 80 FF  LDA  $FF80
 E106  29 7F     AND  #$7F
 E108  8D 80 FF  STA  $FF80
 E10B  AD 82 FF  LDA  $FF82
 E10E  09 80     ORA  #$80
 E110  8D 82 FF  STA  $FF82
 E113  A0 40     LDY  #$40
 E115  20 00 E0  JSR  $E000
 E118  A9 01     LDA  #$01
 E11A  85 83     STA  $83
 E11C  A9 00     LDA  #$00
 E11E  85 82     STA  $82
 E120  85 86     STA  $86
 E122  8D 8C FF  STA  $FF8C
 E125  7A        PLY  
 E126  68        PLA  
 E127  60        RTS  
 E128  48        PHA  
 E129  A5 7D     LDA  $7D
 E12B  C5 81     CMP  $81
 E12D  90 16     BCC  $E145
 E12F  A5 7C     LDA  $7C
 E131  C5 80     CMP  $80
 E133  90 10     BCC  $E145
 E135  A5 7B     LDA  $7B
 E137  C5 7F     CMP  $7F
 E139  90 0A     BCC  $E145
 E13B  A5 7A     LDA  $7A
 E13D  69 01     ADC  #$01
 E13F  C5 7E     CMP  $7E
 E141  90 02     BCC  $E145
 E143  68        PLA  
 E144  60        RTS  
 E145  A9 00     LDA  #$00
 E147  85 83     STA  $83
 E149  85 87     STA  $87
 E14B  85 83     STA  $83
 E14D  85 84     STA  $84
 E14F  85 85     STA  $85
 E151  F0 F0     BEQ  $E143
 E153  DA        PHX  
 E154  A2 FF     LDX  #$FF
 E156  9E 01 7B  STZ  $7B01, X
 E159  CA        DEX  
 E15A  D0 FA     BNE  $E156
 E15C  FA        PLX  
 E15D  60        RTS  
 E15E  48        PHA  
 E15F  DA        PHX  
 E160  A5 82     LDA  $82
 E162  D0 21     BNE  $E185
 E164  A5 83     LDA  $83
 E166  C9 00     CMP  #$00
 E168  F0 0F     BEQ  $E179
 E16A  C9 01     CMP  #$01
 E16C  F0 1A     BEQ  $E188
 E16E  C9 02     CMP  #$02
 E170  F0 31     BEQ  $E1A3
 E172  C9 03     CMP  #$03
 E174  F0 33     BEQ  $E1A9
 E176  4C E0 E1  JMP  $E1E0
 E179  A9 01     LDA  #$01
 E17B  85 83     STA  $83
 E17D  A9 00     LDA  #$00
 E17F  85 83     STA  $83
 E181  85 87     STA  $87
 E183  80 5B     BRA  $E1E0
 E185  4C 15 E2  JMP  $E215
 E188  AD 80 FF  LDA  $FF80
 E18B  29 80     AND  #$80
 E18D  05 83     ORA  $83
 E18F  85 83     STA  $83
 E191  E6 87     INC  $87
 E193  A5 87     LDA  $87
 E195  C9 08     CMP  #$08
 E197  F0 04     BEQ  $E19D
 E199  46 83     LSR  $83
 E19B  80 43     BRA  $E1E0
 E19D  A9 02     LDA  #$02
 E19F  85 83     STA  $83
 E1A1  80 3D     BRA  $E1E0
 E1A3  A9 03     LDA  #$03
 E1A5  85 83     STA  $83
 E1A7  80 37     BRA  $E1E0
 E1A9  A9 00     LDA  #$00
 E1AB  85 83     STA  $83
 E1AD  A5 8B     LDA  $8B
 E1AF  D0 42     BNE  $E1F3
 E1B1  A6 83     LDX  $83
 E1B3  E0 AA     CPX  #$AA
 E1B5  F0 32     BEQ  $E1E9
 E1B7  E0 FA     CPX  #$FA
 E1B9  F0 2E     BEQ  $E1E9
 E1BB  E0 F0     CPX  #$F0
 E1BD  F0 2E     BEQ  $E1ED
 E1BF  E0 12     CPX  #$12
 E1C1  F0 4A     BEQ  $E20D
 E1C3  E0 59     CPX  #$59
 E1C5  F0 46     BEQ  $E20D
 E1C7  A5 8C     LDA  $8C
 E1C9  29 01     AND  #$01
 E1CB  D0 09     BNE  $E1D6
 E1CD  BD 88 E2  LDA  $E288, X
 E1D0  C9 1B     CMP  #$1B
 E1D2  F0 12     BEQ  $E1E6
 E1D4  80 03     BRA  $E1D9
 E1D6  BD 08 E3  LDA  $E308, X
 E1D9  A6 84     LDX  $84
 E1DB  9D 01 7B  STA  $7B01, X
 E1DE  E6 84     INC  $84
 E1E0  2C 80 FF  BIT  $FF80
 E1E3  FA        PLX  
 E1E4  68        PLA  
 E1E5  60        RTS  
 E1E6  4C 8F E8  JMP  $E88F
 E1E9  86 8A     STX  $8A
 E1EB  80 F3     BRA  $E1E0
 E1ED  A9 01     LDA  #$01
 E1EF  85 8B     STA  $8B
 E1F1  80 ED     BRA  $E1E0
 E1F3  A6 83     LDX  $83
 E1F5  E0 12     CPX  #$12
 E1F7  F0 0A     BEQ  $E203
 E1F9  E0 59     CPX  #$59
 E1FB  F0 06     BEQ  $E203
 E1FD  A9 00     LDA  #$00
 E1FF  85 8B     STA  $8B
 E201  80 DD     BRA  $E1E0
 E203  A9 00     LDA  #$00
 E205  85 8B     STA  $8B
 E207  A9 00     LDA  #$00
 E209  85 8C     STA  $8C
 E20B  80 D3     BRA  $E1E0
 E20D  A5 8C     LDA  $8C
 E20F  09 01     ORA  #$01
 E211  85 8C     STA  $8C
 E213  80 CB     BRA  $E1E0
 E215  A5 83     LDA  $83
 E217  C9 01     CMP  #$01
 E219  F0 0A     BEQ  $E225
 E21B  C9 02     CMP  #$02
 E21D  F0 2E     BEQ  $E24D
 E21F  C9 03     CMP  #$03
 E221  F0 4E     BEQ  $E271
 E223  80 BB     BRA  $E1E0
 E225  A5 82     LDA  $82
 E227  29 01     AND  #$01
 E229  F0 0C     BEQ  $E237
 E22B  AD 80 FF  LDA  $FF80
 E22E  09 80     ORA  #$80
 E230  8D 80 FF  STA  $FF80
 E233  E6 86     INC  $86
 E235  80 08     BRA  $E23F
 E237  AD 80 FF  LDA  $FF80
 E23A  29 7F     AND  #$7F
 E23C  8D 80 FF  STA  $FF80
 E23F  E6 87     INC  $87
 E241  A5 87     LDA  $87
 E243  C9 08     CMP  #$08
 E245  4C 9D E1  JMP  $E19D
 E248  46 82     LSR  $82
 E24A  18        CLC  
 E24B  80 93     BRA  $E1E0
 E24D  A5 86     LDA  $86
 E24F  29 01     AND  #$01
 E251  F0 0F     BEQ  $E262
 E253  AD 80 FF  LDA  $FF80
 E256  09 80     ORA  #$80
 E258  8D 80 FF  STA  $FF80
 E25B  A9 03     LDA  #$03
 E25D  85 83     STA  $83
 E25F  4C E0 E1  JMP  $E1E0
 E262  AD 80 FF  LDA  $FF80
 E265  29 7F     AND  #$7F
 E267  8D 80 FF  STA  $FF80
 E26A  A9 03     LDA  #$03
 E26C  85 83     STA  $83
 E26E  4C E0 E1  JMP  $E1E0
 E271  A9 00     LDA  #$00
 E273  85 83     STA  $83
 E275  A9 00     LDA  #$00
 E277  85 82     STA  $82
 E279  85 87     STA  $87
 E27B  85 86     STA  $86
 E27D  AD 82 FF  LDA  $FF82
 E280  29 7F     AND  #$7F
 E282  8D 82 FF  STA  $FF82
 E285  4C E0 E1  JMP  $E1E0
 E288  00 89 87 85 83 81 82 8C 00 8A 88 86 84 09 60 8F  |..............`.|
 E298  03 A0 00 E0 00 71 31 00 00 00 7A 73 61 77 32 A1  |.....q1...zsaw2.|
 E2A8  02 63 78 64 65 34 33 A2 00 20 76 66 74 72 35 A3  |.cxde43.. vftr5.|
 E2B8  00 6E 62 68 67 79 36 00 00 00 6D 6A 75 37 38 00  |.nbhgy6...mju78.|
 E2C8  00 2C 6B 69 6F 30 39 00 00 2E 2F 6C 3B 70 2D 00  |.,kio09.../l;p-.|
 E2D8  00 00 27 00 5B 3D 00 00 00 00 0D 5D 00 5C 00 00  |..'.[=.....].\..|
 E2E8  00 00 00 00 00 00 08 00 00 31 2F 34 37 00 00 00  |.........1/47...|
 E2F8  30 2E 32 35 36 38 1B 00 8B 2B 33 2D 2A 39 8D 00  |0.2568...+3-*9..|
 E308  00 C9 C7 C5 C3 C1 C2 CC 00 CA C8 C6 C4 09 7E CF  |..............~.|
 E318  03 A0 00 E0 00 51 21 00 00 00 5A 53 41 57 40 E1  |.....Q!...ZSAW@.|
 E328  02 43 58 44 45 24 23 E2 00 20 56 46 54 52 25 E3  |.CXDE$#.. VFTR%.|
 E338  00 4E 42 48 47 59 5E 00 00 00 4D 4A 55 26 2A 00  |.NBHGY^...MJU&*.|
 E348  00 3C 4B 49 4F 29 28 00 00 3E 3F 4C 3A 50 5F 00  |.<KIO)(..>?L:P_.|
 E358  00 00 22 00 7B 2B 00 00 00 00 0D 7D 00 7C 00 00  |..".{+.....}.|..|
 E368  00 00 00 00 00 00 08 00 00 91 2F 94 97 00 00 00  |........../.....|
 E378  90 7F 92 95 96 98 1B 00 CB 2B 93 2D 2A 99 CD     |.........+.-*.. |
 E387  AD 8E FF  LDA  $FF8E
 E38A  09 C0     ORA  #$C0
 E38C  8D 8E FF  STA  $FF8E
 E38F  A9 40     LDA  #$40
 E391  8D 8B FF  STA  $FF8B
 E394  A9 60     LDA  #$60
 E396  8D 84 FF  STA  $FF84
 E399  A9 EA     LDA  #$EA
 E39B  8D 85 FF  STA  $FF85
 E39E  A9 00     LDA  #$00
 E3A0  85 7A     STA  $7A
 E3A2  85 7B     STA  $7B
 E3A4  85 7C     STA  $7C
 E3A6  85 7D     STA  $7D
 E3A8  58        CLI  
 E3A9  60        RTS  
 E3AA  E6 7A     INC  $7A
 E3AC  F0 04     BEQ  $E3B2
 E3AE  20 28 E1  JSR  $E128
 E3B1  60        RTS  
 E3B2  E6 7B     INC  $7B
 E3B4  F0 02     BEQ  $E3B8
 E3B6  80 F6     BRA  $E3AE
 E3B8  E6 7C     INC  $7C
 E3BA  F0 02     BEQ  $E3BE
 E3BC  80 F0     BRA  $E3AE
 E3BE  E6 7D     INC  $7D
 E3C0  80 EC     BRA  $E3AE
 E3C2  20 21 E5  JSR  $E521
 E3C5  A9 00     LDA  #$00
 E3C7  85 94     STA  $94
 E3C9  85 90     STA  $90
 E3CB  85 91     STA  $91
 E3CD  85 95     STA  $95
 E3CF  A0 FF     LDY  #$FF
 E3D1  20 00 E0  JSR  $E000
 E3D4  A9 38     LDA  #$38
 E3D6  20 FD E3  JSR  $E3FD
 E3D9  A0 FF     LDY  #$FF
 E3DB  20 00 E0  JSR  $E000
 E3DE  A9 0F     LDA  #$0F
 E3E0  20 FD E3  JSR  $E3FD
 E3E3  A9 06     LDA  #$06
 E3E5  20 FD E3  JSR  $E3FD
 E3E8  A9 01     LDA  #$01
 E3EA  20 FD E3  JSR  $E3FD
 E3ED  A0 FF     LDY  #$FF
 E3EF  20 00 E0  JSR  $E000
 E3F2  A9 80     LDA  #$80
 E3F4  20 FD E3  JSR  $E3FD
 E3F7  A0 FF     LDY  #$FF
 E3F9  20 00 E0  JSR  $E000
 E3FC  60        RTS  
 E3FD  5A        PHY  
 E3FE  8D D1 FF  STA  $FFD1
 E401  A0 02     LDY  #$02
 E403  20 20 E0  JSR  $E020
 E406  8D D0 FF  STA  $FFD0
 E409  A0 20     LDY  #$20
 E40B  20 20 E0  JSR  $E020
 E40E  7A        PLY  
 E40F  60        RTS  
 E410  8D D3 FF  STA  $FFD3
 E413  A0 02     LDY  #$02
 E415  20 20 E0  JSR  $E020
 E418  8D D2 FF  STA  $FFD2
 E41B  A0 20     LDY  #$20
 E41D  20 20 E0  JSR  $E020
 E420  60        RTS  
 E421  5A        PHY  
 E422  DA        PHX  
 E423  48        PHA  
 E424  C9 0A     CMP  #$0A
 E426  F0 67     BEQ  $E48F
 E428  C9 0D     CMP  #$0D
 E42A  F0 63     BEQ  $E48F
 E42C  C9 08     CMP  #$08
 E42E  F0 1F     BEQ  $E44F
 E430  20 10 E4  JSR  $E410
 E433  A6 95     LDX  $95
 E435  9D 82 7A  STA  $7A82, X
 E438  E8        INX  
 E439  86 95     STX  $95
 E43B  E0 14     CPX  #$14
 E43D  F0 2A     BEQ  $E469
 E43F  E0 28     CPX  #$28
 E441  F0 31     BEQ  $E474
 E443  E0 3C     CPX  #$3C
 E445  F0 38     BEQ  $E47F
 E447  E0 50     CPX  #$50
 E449  F0 3F     BEQ  $E48A
 E44B  68        PLA  
 E44C  FA        PLX  
 E44D  7A        PLY  
 E44E  60        RTS  
 E44F  A9 10     LDA  #$10
 E451  20 FD E3  JSR  $E3FD
 E454  A9 20     LDA  #$20
 E456  20 10 E4  JSR  $E410
 E459  A9 10     LDA  #$10
 E45B  20 FD E3  JSR  $E3FD
 E45E  C6 95     DEC  $95
 E460  A6 95     LDX  $95
 E462  A9 20     LDA  #$20
 E464  9D 82 7A  STA  $7A82, X
 E467  80 E2     BRA  $E44B
 E469  A9 14     LDA  #$14
 E46B  85 95     STA  $95
 E46D  A9 C0     LDA  #$C0
 E46F  20 FD E3  JSR  $E3FD
 E472  80 D7     BRA  $E44B
 E474  A9 28     LDA  #$28
 E476  85 95     STA  $95
 E478  A9 94     LDA  #$94
 E47A  20 FD E3  JSR  $E3FD
 E47D  80 CC     BRA  $E44B
 E47F  A9 3C     LDA  #$3C
 E481  85 95     STA  $95
 E483  A9 D4     LDA  #$D4
 E485  20 FD E3  JSR  $E3FD
 E488  80 C1     BRA  $E44B
 E48A  20 AE E4  JSR  $E4AE
 E48D  80 BC     BRA  $E44B
 E48F  A6 95     LDX  $95
 E491  E0 50     CPX  #$50
 E493  F0 F5     BEQ  $E48A
 E495  E0 3C     CPX  #$3C
 E497  F0 E6     BEQ  $E47F
 E499  E0 28     CPX  #$28
 E49B  F0 D7     BEQ  $E474
 E49D  E0 14     CPX  #$14
 E49F  F0 C8     BEQ  $E469
 E4A1  E8        INX  
 E4A2  86 95     STX  $95
 E4A4  A9 20     LDA  #$20
 E4A6  20 10 E4  JSR  $E410
 E4A9  9D 82 7A  STA  $7A82, X
 E4AC  80 E1     BRA  $E48F
 E4AE  48        PHA  
 E4AF  5A        PHY  
 E4B0  DA        PHX  
 E4B1  A9 80     LDA  #$80
 E4B3  20 FD E3  JSR  $E3FD
 E4B6  A2 14     LDX  #$14
 E4B8  BD 82 7A  LDA  $7A82, X
 E4BB  20 10 E4  JSR  $E410
 E4BE  A8        TAY  
 E4BF  E0 4F     CPX  #$4F
 E4C1  F0 4A     BEQ  $E50D
 E4C3  E0 3B     CPX  #$3B
 E4C5  F0 3F     BEQ  $E506
 E4C7  E0 27     CPX  #$27
 E4C9  F0 34     BEQ  $E4FF
 E4CB  8A        TXA  
 E4CC  38        SEC  
 E4CD  E9 14     SBC  #$14
 E4CF  AA        TAX  
 E4D0  98        TYA  
 E4D1  9D 82 7A  STA  $7A82, X
 E4D4  8A        TXA  
 E4D5  18        CLC  
 E4D6  69 14     ADC  #$14
 E4D8  AA        TAX  
 E4D9  E8        INX  
 E4DA  E0 50     CPX  #$50
 E4DC  90 DA     BCC  $E4B8
 E4DE  A9 D4     LDA  #$D4
 E4E0  20 FD E3  JSR  $E3FD
 E4E3  A9 20     LDA  #$20
 E4E5  A2 3C     LDX  #$3C
 E4E7  9D 82 7A  STA  $7A82, X
 E4EA  20 10 E4  JSR  $E410
 E4ED  E8        INX  
 E4EE  E0 50     CPX  #$50
 E4F0  90 F5     BCC  $E4E7
 E4F2  A9 3C     LDA  #$3C
 E4F4  85 95     STA  $95
 E4F6  A9 D4     LDA  #$D4
 E4F8  20 FD E3  JSR  $E3FD
 E4FB  FA        PLX  
 E4FC  7A        PLY  
 E4FD  68        PLA  
 E4FE  60        RTS  
 E4FF  A9 C0     LDA  #$C0
 E501  20 FD E3  JSR  $E3FD
 E504  80 C5     BRA  $E4CB
 E506  A9 94     LDA  #$94
 E508  20 FD E3  JSR  $E3FD
 E50B  80 BE     BRA  $E4CB
 E50D  A9 D4     LDA  #$D4
 E50F  20 FD E3  JSR  $E3FD
 E512  80 B7     BRA  $E4CB
 E514  48        PHA  
 E515  A9 01     LDA  #$01
 E517  20 FD E3  JSR  $E3FD
 E51A  A9 80     LDA  #$80
 E51C  20 FD E3  JSR  $E3FD
 E51F  68        PLA  
 E520  60        RTS  
 E521  48        PHA  
 E522  DA        PHX  
 E523  A2 80     LDX  #$80
 E525  A9 20     LDA  #$20
 E527  9D 82 7A  STA  $7A82, X
 E52A  CA        DEX  
 E52B  D0 FA     BNE  $E527
 E52D  FA        PLX  
 E52E  68        PLA  
 E52F  60        RTS  
 E530  A9 05     LDA  #$05
 E532  8D B0 FF  STA  $FFB0
 E535  A9 1E     LDA  #$1E
 E537  8D B1 FF  STA  $FFB1
 E53A  A9 FF     LDA  #$FF
 E53C  8D B2 FF  STA  $FFB2
 E53F  A9 00     LDA  #$00
 E541  8D B3 FF  STA  $FFB3
 E544  A9 F0     LDA  #$F0
 E546  8D B3 FF  STA  $FFB3
 E549  A9 00     LDA  #$00
 E54B  8D B4 FF  STA  $FFB4
 E54E  8D B1 FF  STA  $FFB1
 E551  8D B2 FF  STA  $FFB2
 E554  20 C3 E5  JSR  $E5C3
 E557  60        RTS  
 E558  48        PHA  
 E559  DA        PHX  
 E55A  5A        PHY  
 E55B  C9 0D     CMP  #$0D
 E55D  F0 34     BEQ  $E593
 E55F  C9 0A     CMP  #$0A
 E561  F0 30     BEQ  $E593
 E563  C9 08     CMP  #$08
 E565  F0 0F     BEQ  $E576
 E567  8D B3 FF  STA  $FFB3
 E56A  E6 93     INC  $93
 E56C  A6 93     LDX  $93
 E56E  E0 64     CPX  #$64
 E570  F0 21     BEQ  $E593
 E572  7A        PLY  
 E573  FA        PLX  
 E574  68        PLA  
 E575  60        RTS  
 E576  C6 93     DEC  $93
 E578  A9 85     LDA  #$85
 E57A  8D B0 FF  STA  $FFB0
 E57D  A9 20     LDA  #$20
 E57F  8D B3 FF  STA  $FFB3
 E582  A9 01     LDA  #$01
 E584  8D B0 FF  STA  $FFB0
 E587  A9 20     LDA  #$20
 E589  8D B3 FF  STA  $FFB3
 E58C  A9 05     LDA  #$05
 E58E  8D B0 FF  STA  $FFB0
 E591  80 DF     BRA  $E572
 E593  E6 92     INC  $92
 E595  64 93     STZ  $93
 E597  A6 92     LDX  $92
 E599  E0 4B     CPX  #$4B
 E59B  90 05     BCC  $E5A2
 E59D  20 B0 E5  JSR  $E5B0
 E5A0  80 D0     BRA  $E572
 E5A2  BD F3 E5  LDA  $E5F3, X
 E5A5  8D B2 FF  STA  $FFB2
 E5A8  BD 30 E6  LDA  $E630, X
 E5AB  8D B1 FF  STA  $FFB1
 E5AE  80 C2     BRA  $E572
 E5B0  20 C3 E5  JSR  $E5C3
 E5B3  60        RTS  
 E5B4  48        PHA  
 E5B5  A9 00     LDA  #$00
 E5B7  8D B2 FF  STA  $FFB2
 E5BA  8D B1 FF  STA  $FFB1
 E5BD  85 93     STA  $93
 E5BF  85 92     STA  $92
 E5C1  68        PLA  
 E5C2  60        RTS  
 E5C3  48        PHA  
 E5C4  DA        PHX  
 E5C5  5A        PHY  
 E5C6  A9 00     LDA  #$00
 E5C8  85 92     STA  $92
 E5CA  A9 00     LDA  #$00
 E5CC  8D B2 FF  STA  $FFB2
 E5CF  8D B1 FF  STA  $FFB1
 E5D2  A9 20     LDA  #$20
 E5D4  A0 64     LDY  #$64
 E5D6  A2 4B     LDX  #$4B
 E5D8  8D B3 FF  STA  $FFB3
 E5DB  CA        DEX  
 E5DC  D0 FA     BNE  $E5D8
 E5DE  88        DEY  
 E5DF  D0 F5     BNE  $E5D6
 E5E1  A9 00     LDA  #$00
 E5E3  85 92     STA  $92
 E5E5  85 93     STA  $93
 E5E7  A9 00     LDA  #$00
 E5E9  8D B2 FF  STA  $FFB2
 E5EC  8D B1 FF  STA  $FFB1
 E5EF  7A        PLY  
 E5F0  FA        PLX  
 E5F1  68        PLA  
 E5F2  60        RTS  
 E5F3  00 02 05 07 0A 0C 0F 11 14 16 19 1B 1E 20 23 25  |............. #%|
 E603  28 2A 2D 2F 32 34 37 39 3C 3E 41 43 46 48 4B 4D  |(*-/2479<>ACFHKM|
 E613  50 52 55 57 5A 5C 5F 61 64 66 69 6B 6E 70 73 75  |PRUWZ\_adfiknpsu|
 E623  78 7A 7D 7F 82 84 87 89 8C 8E 91 93 96 00 10 00  |xz}.............|
 E633  10 00 10 00 10 00 10 00 10 00 10 00 10 00 10 00  |................|
 E643  10 00 10 00 10 00 10 00 10 00 10 00 10 00 10 00  |................|
 E653  10 00 10 00 10 00 10 00 10 00 10 00 10 00 10 00  |................|
 E663  10 00 10 00 10 00 10 00 10 00                    |..........      |
 E66D  AD 80 FF  LDA  $FF80
 E670  29 90     AND  #$90
 E672  09 40     ORA  #$40
 E674  8D 80 FF  STA  $FF80
 E677  AD 82 FF  LDA  $FF82
 E67A  09 6F     ORA  #$6F
 E67C  29 EF     AND  #$EF
 E67E  8D 82 FF  STA  $FF82
 E681  60        RTS  
 E682  29 07     AND  #$07
 E684  8D 80 FF  STA  $FF80
 E687  85 99     STA  $99
 E689  5A        PHY  
 E68A  A0 01     LDY  #$01
 E68C  20 20 E0  JSR  $E020
 E68F  09 40     ORA  #$40
 E691  8D 80 FF  STA  $FF80
 E694  7A        PLY  
 E695  60        RTS  
 E696  60        RTS  
 E697  5A        PHY  
 E698  85 97     STA  $97
 E69A  DA        PHX  
 E69B  A2 08     LDX  #$08
 E69D  64 98     STZ  $98
 E69F  06 97     ASL  $97
 E6A1  90 08     BCC  $E6AB
 E6A3  AD 80 FF  LDA  $FF80
 E6A6  09 60     ORA  #$60
 E6A8  4C B0 E6  JMP  $E6B0
 E6AB  AD 80 FF  LDA  $FF80
 E6AE  29 DF     AND  #$DF
 E6B0  05 99     ORA  $99
 E6B2  8D 80 FF  STA  $FF80
 E6B5  EA        NOP  
 E6B6  EA        NOP  
 E6B7  EA        NOP  
 E6B8  EA        NOP  
 E6B9  EA        NOP  
 E6BA  EA        NOP  
 E6BB  09 48     ORA  #$48
 E6BD  05 99     ORA  $99
 E6BF  8D 80 FF  STA  $FF80
 E6C2  EA        NOP  
 E6C3  EA        NOP  
 E6C4  EA        NOP  
 E6C5  EA        NOP  
 E6C6  EA        NOP  
 E6C7  EA        NOP  
 E6C8  AD 80 FF  LDA  $FF80
 E6CB  29 10     AND  #$10
 E6CD  D0 06     BNE  $E6D5
 E6CF  18        CLC  
 E6D0  26 98     ROL  $98
 E6D2  4C D8 E6  JMP  $E6D8
 E6D5  38        SEC  
 E6D6  26 98     ROL  $98
 E6D8  AD 80 FF  LDA  $FF80
 E6DB  29 F7     AND  #$F7
 E6DD  EA        NOP  
 E6DE  EA        NOP  
 E6DF  EA        NOP  
 E6E0  EA        NOP  
 E6E1  EA        NOP  
 E6E2  EA        NOP  
 E6E3  05 99     ORA  $99
 E6E5  8D 80 FF  STA  $FF80
 E6E8  CA        DEX  
 E6E9  D0 B4     BNE  $E69F
 E6EB  A0 01     LDY  #$01
 E6ED  20 20 E0  JSR  $E020
 E6F0  AD 80 FF  LDA  $FF80
 E6F3  05 99     ORA  $99
 E6F5  29 DF     AND  #$DF
 E6F7  8D 80 FF  STA  $FF80
 E6FA  A5 98     LDA  $98
 E6FC  FA        PLX  
 E6FD  7A        PLY  
 E6FE  60        RTS  
 E6FF  8D 01 7A  STA  $7A01
 E702  DA        PHX  
 E703  20 6D E6  JSR  $E66D
 E706  A9 00     LDA  #$00
 E708  20 82 E6  JSR  $E682
 E70B  8D FC 79  STA  $79FC
 E70E  8D FD 79  STA  $79FD
 E711  8D FE 79  STA  $79FE
 E714  8D FF 79  STA  $79FF
 E717  A9 95     LDA  #$95
 E719  8D 02 7A  STA  $7A02
 E71C  A2 FF     LDX  #$FF
 E71E  9E FD 77  STZ  $77FD, X
 E721  CA        DEX  
 E722  D0 FA     BNE  $E71E
 E724  A2 FF     LDX  #$FF
 E726  9E FD 78  STZ  $78FD, X
 E729  CA        DEX  
 E72A  D0 FA     BNE  $E726
 E72C  A9 31     LDA  #$31
 E72E  20 30 E9  JSR  $E930
 E731  A2 0A     LDX  #$0A
 E733  A9 FF     LDA  #$FF
 E735  20 97 E6  JSR  $E697
 E738  CA        DEX  
 E739  D0 F8     BNE  $E733
 E73B  A9 32     LDA  #$32
 E73D  20 30 E9  JSR  $E930
 E740  20 27 E8  JSR  $E827
 E743  C9 01     CMP  #$01
 E745  D0 6A     BNE  $E7B1
 E747  A9 33     LDA  #$33
 E749  20 30 E9  JSR  $E930
 E74C  20 3E E8  JSR  $E83E
 E74F  C9 01     CMP  #$01
 E751  D0 5E     BNE  $E7B1
 E753  A9 34     LDA  #$34
 E755  20 30 E9  JSR  $E930
 E758  A2 FF     LDX  #$FF
 E75A  9C FC 79  STZ  $79FC
 E75D  9C FD 79  STZ  $79FD
 E760  9C FE 79  STZ  $79FE
 E763  9C FF 79  STZ  $79FF
 E766  CA        DEX  
 E767  F0 48     BEQ  $E7B1
 E769  9C FC 79  STZ  $79FC
 E76C  A9 37     LDA  #$37
 E76E  20 C1 E7  JSR  $E7C1
 E771  A9 40     LDA  #$40
 E773  8D FC 79  STA  $79FC
 E776  A9 29     LDA  #$29
 E778  20 C1 E7  JSR  $E7C1
 E77B  D0 E9     BNE  $E766
 E77D  A9 35     LDA  #$35
 E77F  20 30 E9  JSR  $E930
 E782  A9 3A     LDA  #$3A
 E784  20 C1 E7  JSR  $E7C1
 E787  AD FD 77  LDA  $77FD
 E78A  29 40     AND  #$40
 E78C  F0 0F     BEQ  $E79D
 E78E  A2 00     LDX  #$00
 E790  BD 72 E8  LDA  $E872, X
 E793  F0 06     BEQ  $E79B
 E795  20 30 E9  JSR  $E930
 E798  E8        INX  
 E799  80 F5     BRA  $E790
 E79B  FA        PLX  
 E79C  60        RTS  
 E79D  9C FC 79  STZ  $79FC
 E7A0  9C FD 79  STZ  $79FD
 E7A3  A9 02     LDA  #$02
 E7A5  8D FE 79  STA  $79FE
 E7A8  9C FF 79  STZ  $79FF
 E7AB  20 C1 E7  JSR  $E7C1
 E7AE  4C 9B E7  JMP  $E79B
 E7B1  A2 00     LDX  #$00
 E7B3  BD 7F E8  LDA  $E87F, X
 E7B6  F0 E3     BEQ  $E79B
 E7B8  20 30 E9  JSR  $E930
 E7BB  E8        INX  
 E7BC  80 F5     BRA  $E7B3
 E7BE  4C 9B E7  JMP  $E79B
 E7C1  29 3F     AND  #$3F
 E7C3  8D 00 7A  STA  $7A00
 E7C6  09 40     ORA  #$40
 E7C8  20 59 E8  JSR  $E859
 E7CB  20 97 E6  JSR  $E697
 E7CE  AD FC 79  LDA  $79FC
 E7D1  20 97 E6  JSR  $E697
 E7D4  AD FD 79  LDA  $79FD
 E7D7  20 97 E6  JSR  $E697
 E7DA  AD FE 79  LDA  $79FE
 E7DD  20 97 E6  JSR  $E697
 E7E0  AD FF 79  LDA  $79FF
 E7E3  20 97 E6  JSR  $E697
 E7E6  AD 02 7A  LDA  $7A02
 E7E9  20 97 E6  JSR  $E697
 E7EC  A9 FF     LDA  #$FF
 E7EE  20 97 E6  JSR  $E697
 E7F1  30 F9     BMI  $E7EC
 E7F3  48        PHA  
 E7F4  AD 00 7A  LDA  $7A00
 E7F7  C9 08     CMP  #$08
 E7F9  F0 09     BEQ  $E804
 E7FB  C9 3A     CMP  #$3A
 E7FD  F0 05     BEQ  $E804
 E7FF  20 65 E8  JSR  $E865
 E802  68        PLA  
 E803  60        RTS  
 E804  A9 FF     LDA  #$FF
 E806  20 97 E6  JSR  $E697
 E809  8D FD 77  STA  $77FD
 E80C  A9 FF     LDA  #$FF
 E80E  20 97 E6  JSR  $E697
 E811  8D FE 77  STA  $77FE
 E814  A9 FF     LDA  #$FF
 E816  20 97 E6  JSR  $E697
 E819  8D FF 77  STA  $77FF
 E81C  A9 FF     LDA  #$FF
 E81E  20 97 E6  JSR  $E697
 E821  8D 00 78  STA  $7800
 E824  4C FF E7  JMP  $E7FF
 E827  A9 95     LDA  #$95
 E829  8D 02 7A  STA  $7A02
 E82C  9C FC 79  STZ  $79FC
 E82F  9C FD 79  STZ  $79FD
 E832  9C FE 79  STZ  $79FE
 E835  9C FF 79  STZ  $79FF
 E838  A9 00     LDA  #$00
 E83A  20 C1 E7  JSR  $E7C1
 E83D  60        RTS  
 E83E  A9 87     LDA  #$87
 E840  8D 02 7A  STA  $7A02
 E843  9C FC 79  STZ  $79FC
 E846  9C FD 79  STZ  $79FD
 E849  A9 01     LDA  #$01
 E84B  8D FE 79  STA  $79FE
 E84E  A9 AA     LDA  #$AA
 E850  8D FF 79  STA  $79FF
 E853  A9 48     LDA  #$48
 E855  20 C1 E7  JSR  $E7C1
 E858  60        RTS  
 E859  48        PHA  
 E85A  AD 01 7A  LDA  $7A01
 E85D  20 30 E9  JSR  $E930
 E860  20 82 E6  JSR  $E682
 E863  68        PLA  
 E864  60        RTS  
 E865  48        PHA  
 E866  A9 00     LDA  #$00
 E868  20 82 E6  JSR  $E682
 E86B  A9 FF     LDA  #$FF
 E86D  20 97 E6  JSR  $E697
 E870  68        PLA  
 E871  60        RTS  
 E872  0D 53 44 20 69 6E 69 74 20 4F 4B 0D 00 0D 53 44  |.SD init OK...SD|
 E882  20 69 6E 69 74 20 46 41 49 4C 0D 07 00           | init FAIL...   |
 E88F  A9 01     LDA  #$01
 E891  8D 81 FF  STA  $FF81
 E894  A9 FF     LDA  #$FF
 E896  8D 83 FF  STA  $FF83
 E899  8D 82 FF  STA  $FF82
 E89C  A0 04     LDY  #$04
 E89E  20 0F E0  JSR  $E00F
 E8A1  20 30 E5  JSR  $E530
 E8A4  20 2D E0  JSR  $E02D
 E8A7  20 87 E3  JSR  $E387
 E8AA  20 C9 E8  JSR  $E8C9
 E8AD  20 C2 E3  JSR  $E3C2
 E8B0  58        CLI  
 E8B1  A2 00     LDX  #$00
 E8B3  BD 77 E9  LDA  $E977, X
 E8B6  F0 06     BEQ  $E8BE
 E8B8  20 30 E9  JSR  $E930
 E8BB  E8        INX  
 E8BC  80 F5     BRA  $E8B3
 E8BE  A9 01     LDA  #$01
 E8C0  8D 80 FF  STA  $FF80
 E8C3  4C 00 80  JMP  $8000
 E8C6  4C 8F E8  JMP  $E88F
 E8C9  8D E1 FF  STA  $FFE1
 E8CC  64 96     STZ  $96
 E8CE  A9 0B     LDA  #$0B
 E8D0  8D E2 FF  STA  $FFE2
 E8D3  AD E2 FF  LDA  $FFE2
 E8D6  C9 0B     CMP  #$0B
 E8D8  D0 10     BNE  $E8EA
 E8DA  AD E1 FF  LDA  $FFE1
 E8DD  29 60     AND  #$60
 E8DF  D0 09     BNE  $E8EA
 E8E1  A9 01     LDA  #$01
 E8E3  85 96     STA  $96
 E8E5  A9 10     LDA  #$10
 E8E7  8D E3 FF  STA  $FFE3
 E8EA  A0 14     LDY  #$14
 E8EC  AD E1 FF  LDA  $FFE1
 E8EF  AD E0 FF  LDA  $FFE0
 E8F2  88        DEY  
 E8F3  D0 F7     BNE  $E8EC
 E8F5  60        RTS  
 E8F6  A5 96     LDA  $96
 E8F8  F0 0F     BEQ  $E909
 E8FA  AD E1 FF  LDA  $FFE1
 E8FD  29 08     AND  #$08
 E8FF  F0 08     BEQ  $E909
 E901  AD E0 FF  LDA  $FFE0
 E904  38        SEC  
 E905  20 27 E9  JSR  $E927
 E908  60        RTS  
 E909  DA        PHX  
 E90A  A6 85     LDX  $85
 E90C  BD 01 7B  LDA  $7B01, X
 E90F  F0 0B     BEQ  $E91C
 E911  9E 01 7B  STZ  $7B01, X
 E914  E6 85     INC  $85
 E916  38        SEC  
 E917  FA        PLX  
 E918  20 27 E9  JSR  $E927
 E91B  60        RTS  
 E91C  E6 85     INC  $85
 E91E  FA        PLX  
 E91F  18        CLC  
 E920  60        RTS  
 E921  20 F6 E8  JSR  $E8F6
 E924  90 FB     BCC  $E921
 E926  60        RTS  
 E927  C9 03     CMP  #$03
 E929  D0 03     BNE  $E92E
 E92B  4C 81 80  JMP  $8081
 E92E  38        SEC  
 E92F  60        RTS  
 E930  20 58 E5  JSR  $E558
 E933  5A        PHY  
 E934  A4 96     LDY  $96
 E936  F0 08     BEQ  $E940
 E938  8D E0 FF  STA  $FFE0
 E93B  A0 20     LDY  #$20
 E93D  20 20 E0  JSR  $E020
 E940  7A        PLY  
 E941  60        RTS  
 E942  48        PHA  
 E943  5A        PHY  
 E944  AD 8D FF  LDA  $FF8D
 E947  10 2B     BPL  $E974
 E949  29 08     AND  #$08
 E94B  D0 09     BNE  $E956
 E94D  AD 8D FF  LDA  $FF8D
 E950  29 40     AND  #$40
 E952  D0 17     BNE  $E96B
 E954  80 1E     BRA  $E974
 E956  A5 7A     LDA  $7A
 E958  85 7E     STA  $7E
 E95A  A5 7B     LDA  $7B
 E95C  85 7F     STA  $7F
 E95E  A5 7C     LDA  $7C
 E960  85 80     STA  $80
 E962  A5 7D     LDA  $7D
 E964  85 81     STA  $81
 E966  20 5E E1  JSR  $E15E
 E969  80 09     BRA  $E974
 E96B  AD 84 FF  LDA  $FF84
 E96E  20 AA E3  JSR  $E3AA
 E971  20 F6 E8  JSR  $E8F6
 E974  7A        PLY  
 E975  68        PLA  
 E976  40        RTI  
 E977  54 61 6C 69 20 46 6F 72 74 68 20 32 20 66 6F 72  |Tali Forth 2 for|
 E987  20 50 6C 61 6E 63 6B 20 36 35 30 32 20 28 32 37  | Planck 6502 (27|
 E997  2F 30 38 2F 32 30 32 31 29 0A 00 00 00 00 00 00  |/08/2021).......|
 E9A7  00 00 00 00 00 00 00 00 00 00 00 00 00 00 00 00  |................|
 E9B7  00 00 00 00 00 00 00 00 00 00 00 00 00 00 00 00  |................|
 E9C7  00 00 00 00 00 00 00 00 00 00 00 00 00 00 00 00  |................|
 E9D7  00 00 00 00 00 00 00 00 00 00 00 00 00 00 00 00  |................|
 E9E7  00 00 00 00 00 00 00 00 00 00 00 00 00 00 00 00  |................|
 E9F7  00 00 00 00 00 00 00 00 00 00 00 00 00 00 00 00  |................|
 EA07  00 00 00 00 00 00 00 00 00 00 00 00 00 00 00 00  |................|
 EA17  00 00 00 00 00 00 00 00 00 00 00 00 00 00 00 00  |................|
 EA27  00 00 00 00 00 00 00 00 00 00 00 00 00 00 00 00  |................|
 EA37  00 00 00 00 00 00 00 00 00 00 00 00 00 00 00 00  |................|
 EA47  00 00 00 00 00 00 00 00 00 00 00 00 00 00 00 00  |................|
 EA57  00 00 00 00 00 00 00 00 00 00 00 00 00 00 00 00  |................|
 EA67  00 00 00 00 00 00 00 00 00 00 00 00 00 00 00 00  |................|
 EA77  00 00 00 00 00 00 00 00 00 00 00 00 00 00 00 00  |................|
 EA87  00 00 00 00 00 00 00 00 00 00 00 00 00 00 00 00  |................|
 EA97  00 00 00 00 00 00 00 00 00 00 00 00 00 00 00 00  |................|
 EAA7  00 00 00 00 00 00 00 00 00 00 00 00 00 00 00 00  |................|
 EAB7  00 00 00 00 00 00 00 00 00 00 00 00 00 00 00 00  |................|
 EAC7  00 00 00 00 00 00 00 00 00 00 00 00 00 00 00 00  |................|
 EAD7  00 00 00 00 00 00 00 00 00 00 00 00 00 00 00 00  |................|
 EAE7  00 00 00 00 00 00 00 00 00 00 00 00 00 00 00 00  |................|
 EAF7  00 00 00 00 00 00 00 00 00 00 00 00 00 00 00 00  |................|
 EB07  00 00 00 00 00 00 00 00 00 00 00 00 00 00 00 00  |................|
 EB17  00 00 00 00 00 00 00 00 00 00 00 00 00 00 00 00  |................|
 EB27  00 00 00 00 00 00 00 00 00 00 00 00 00 00 00 00  |................|
 EB37  00 00 00 00 00 00 00 00 00 00 00 00 00 00 00 00  |................|
 EB47  00 00 00 00 00 00 00 00 00 00 00 00 00 00 00 00  |................|
 EB57  00 00 00 00 00 00 00 00 00 00 00 00 00 00 00 00  |................|
 EB67  00 00 00 00 00 00 00 00 00 00 00 00 00 00 00 00  |................|
 EB77  00 00 00 00 00 00 00 00 00 00 00 00 00 00 00 00  |................|
 EB87  00 00 00 00 00 00 00 00 00 00 00 00 00 00 00 00  |................|
 EB97  00 00 00 00 00 00 00 00 00 00 00 00 00 00 00 00  |................|
 EBA7  00 00 00 00 00 00 00 00 00 00 00 00 00 00 00 00  |................|
 EBB7  00 00 00 00 00 00 00 00 00 00 00 00 00 00 00 00  |................|
 EBC7  00 00 00 00 00 00 00 00 00 00 00 00 00 00 00 00  |................|
 EBD7  00 00 00 00 00 00 00 00 00 00 00 00 00 00 00 00  |................|
 EBE7  00 00 00 00 00 00 00 00 00 00 00 00 00 00 00 00  |................|
 EBF7  00 00 00 00 00 00 00 00 00 00 00 00 00 00 00 00  |................|
 EC07  00 00 00 00 00 00 00 00 00 00 00 00 00 00 00 00  |................|
 EC17  00 00 00 00 00 00 00 00 00 00 00 00 00 00 00 00  |................|
 EC27  00 00 00 00 00 00 00 00 00 00 00 00 00 00 00 00  |................|
 EC37  00 00 00 00 00 00 00 00 00 00 00 00 00 00 00 00  |................|
 EC47  00 00 00 00 00 00 00 00 00 00 00 00 00 00 00 00  |................|
 EC57  00 00 00 00 00 00 00 00 00 00 00 00 00 00 00 00  |................|
 EC67  00 00 00 00 00 00 00 00 00 00 00 00 00 00 00 00  |................|
 EC77  00 00 00 00 00 00 00 00 00 00 00 00 00 00 00 00  |................|
 EC87  00 00 00 00 00 00 00 00 00 00 00 00 00 00 00 00  |................|
 EC97  00 00 00 00 00 00 00 00 00 00 00 00 00 00 00 00  |................|
 ECA7  00 00 00 00 00 00 00 00 00 00 00 00 00 00 00 00  |................|
 ECB7  00 00 00 00 00 00 00 00 00 00 00 00 00 00 00 00  |................|
 ECC7  00 00 00 00 00 00 00 00 00 00 00 00 00 00 00 00  |................|
 ECD7  00 00 00 00 00 00 00 00 00 00 00 00 00 00 00 00  |................|
 ECE7  00 00 00 00 00 00 00 00 00 00 00 00 00 00 00 00  |................|
 ECF7  00 00 00 00 00 00 00 00 00 00 00 00 00 00 00 00  |................|
 ED07  00 00 00 00 00 00 00 00 00 00 00 00 00 00 00 00  |................|
 ED17  00 00 00 00 00 00 00 00 00 00 00 00 00 00 00 00  |................|
 ED27  00 00 00 00 00 00 00 00 00 00 00 00 00 00 00 00  |................|
 ED37  00 00 00 00 00 00 00 00 00 00 00 00 00 00 00 00  |................|
 ED47  00 00 00 00 00 00 00 00 00 00 00 00 00 00 00 00  |................|
 ED57  00 00 00 00 00 00 00 00 00 00 00 00 00 00 00 00  |................|
 ED67  00 00 00 00 00 00 00 00 00 00 00 00 00 00 00 00  |................|
 ED77  00 00 00 00 00 00 00 00 00 00 00 00 00 00 00 00  |................|
 ED87  00 00 00 00 00 00 00 00 00 00 00 00 00 00 00 00  |................|
 ED97  00 00 00 00 00 00 00 00 00 00 00 00 00 00 00 00  |................|
 EDA7  00 00 00 00 00 00 00 00 00 00 00 00 00 00 00 00  |................|
 EDB7  00 00 00 00 00 00 00 00 00 00 00 00 00 00 00 00  |................|
 EDC7  00 00 00 00 00 00 00 00 00 00 00 00 00 00 00 00  |................|
 EDD7  00 00 00 00 00 00 00 00 00 00 00 00 00 00 00 00  |................|
 EDE7  00 00 00 00 00 00 00 00 00 00 00 00 00 00 00 00  |................|
 EDF7  00 00 00 00 00 00 00 00 00 00 00 00 00 00 00 00  |................|
 EE07  00 00 00 00 00 00 00 00 00 00 00 00 00 00 00 00  |................|
 EE17  00 00 00 00 00 00 00 00 00 00 00 00 00 00 00 00  |................|
 EE27  00 00 00 00 00 00 00 00 00 00 00 00 00 00 00 00  |................|
 EE37  00 00 00 00 00 00 00 00 00 00 00 00 00 00 00 00  |................|
 EE47  00 00 00 00 00 00 00 00 00 00 00 00 00 00 00 00  |................|
 EE57  00 00 00 00 00 00 00 00 00 00 00 00 00 00 00 00  |................|
 EE67  00 00 00 00 00 00 00 00 00 00 00 00 00 00 00 00  |................|
 EE77  00 00 00 00 00 00 00 00 00 00 00 00 00 00 00 00  |................|
 EE87  00 00 00 00 00 00 00 00 00 00 00 00 00 00 00 00  |................|
 EE97  00 00 00 00 00 00 00 00 00 00 00 00 00 00 00 00  |................|
 EEA7  00 00 00 00 00 00 00 00 00 00 00 00 00 00 00 00  |................|
 EEB7  00 00 00 00 00 00 00 00 00 00 00 00 00 00 00 00  |................|
 EEC7  00 00 00 00 00 00 00 00 00 00 00 00 00 00 00 00  |................|
 EED7  00 00 00 00 00 00 00 00 00 00 00 00 00 00 00 00  |................|
 EEE7  00 00 00 00 00 00 00 00 00 00 00 00 00 00 00 00  |................|
 EEF7  00 00 00 00 00 00 00 00 00 00 00 00 00 00 00 00  |................|
 EF07  00 00 00 00 00 00 00 00 00 00 00 00 00 00 00 00  |................|
 EF17  00 00 00 00 00 00 00 00 00 00 00 00 00 00 00 00  |................|
 EF27  00 00 00 00 00 00 00 00 00 00 00 00 00 00 00 00  |................|
 EF37  00 00 00 00 00 00 00 00 00 00 00 00 00 00 00 00  |................|
 EF47  00 00 00 00 00 00 00 00 00 00 00 00 00 00 00 00  |................|
 EF57  00 00 00 00 00 00 00 00 00 00 00 00 00 00 00 00  |................|
 EF67  00 00 00 00 00 00 00 00 00 00 00 00 00 00 00 00  |................|
 EF77  00 00 00 00 00 00 00 00 00 00 00 00 00 00 00 00  |................|
 EF87  00 00 00 00 00 00 00 00 00 00 00 00 00 00 00 00  |................|
 EF97  00 00 00 00 00 00 00 00 00 00 00 00 00 00 00 00  |................|
 EFA7  00 00 00 00 00 00 00 00 00 00 00 00 00 00 00 00  |................|
 EFB7  00 00 00 00 00 00 00 00 00 00 00 00 00 00 00 00  |................|
 EFC7  00 00 00 00 00 00 00 00 00 00 00 00 00 00 00 00  |................|
 EFD7  00 00 00 00 00 00 00 00 00 00 00 00 00 00 00 00  |................|
 EFE7  00 00 00 00 00 00 00 00 00 00 00 00 00 00 00 00  |................|
 EFF7  00 00 00 00 00 00 00 00 00 00 00 00 00 00 00 00  |................|
 F007  00 00 00 00 00 00 00 00 00 00 00 00 00 00 00 00  |................|
 F017  00 00 00 00 00 00 00 00 00 00 00 00 00 00 00 00  |................|
 F027  00 00 00 00 00 00 00 00 00 00 00 00 00 00 00 00  |................|
 F037  00 00 00 00 00 00 00 00 00 00 00 00 00 00 00 00  |................|
 F047  00 00 00 00 00 00 00 00 00 00 00 00 00 00 00 00  |................|
 F057  00 00 00 00 00 00 00 00 00 00 00 00 00 00 00 00  |................|
 F067  00 00 00 00 00 00 00 00 00 00 00 00 00 00 00 00  |................|
 F077  00 00 00 00 00 00 00 00 00 00 00 00 00 00 00 00  |................|
 F087  00 00 00 00 00 00 00 00 00 00 00 00 00 00 00 00  |................|
 F097  00 00 00 00 00 00 00 00 00 00 00 00 00 00 00 00  |................|
 F0A7  00 00 00 00 00 00 00 00 00 00 00 00 00 00 00 00  |................|
 F0B7  00 00 00 00 00 00 00 00 00 00 00 00 00 00 00 00  |................|
 F0C7  00 00 00 00 00 00 00 00 00 00 00 00 00 00 00 00  |................|
 F0D7  00 00 00 00 00 00 00 00 00 00 00 00 00 00 00 00  |................|
 F0E7  00 00 00 00 00 00 00 00 00 00 00 00 00 00 00 00  |................|
 F0F7  00 00 00 00 00 00 00 00 00 00 00 00 00 00 00 00  |................|
 F107  00 00 00 00 00 00 00 00 00 00 00 00 00 00 00 00  |................|
 F117  00 00 00 00 00 00 00 00 00 00 00 00 00 00 00 00  |................|
 F127  00 00 00 00 00 00 00 00 00 00 00 00 00 00 00 00  |................|
 F137  00 00 00 00 00 00 00 00 00 00 00 00 00 00 00 00  |................|
 F147  00 00 00 00 00 00 00 00 00 00 00 00 00 00 00 00  |................|
 F157  00 00 00 00 00 00 00 00 00 00 00 00 00 00 00 00  |................|
 F167  00 00 00 00 00 00 00 00 00 00 00 00 00 00 00 00  |................|
 F177  00 00 00 00 00 00 00 00 00 00 00 00 00 00 00 00  |................|
 F187  00 00 00 00 00 00 00 00 00 00 00 00 00 00 00 00  |................|
 F197  00 00 00 00 00 00 00 00 00 00 00 00 00 00 00 00  |................|
 F1A7  00 00 00 00 00 00 00 00 00 00 00 00 00 00 00 00  |................|
 F1B7  00 00 00 00 00 00 00 00 00 00 00 00 00 00 00 00  |................|
 F1C7  00 00 00 00 00 00 00 00 00 00 00 00 00 00 00 00  |................|
 F1D7  00 00 00 00 00 00 00 00 00 00 00 00 00 00 00 00  |................|
 F1E7  00 00 00 00 00 00 00 00 00 00 00 00 00 00 00 00  |................|
 F1F7  00 00 00 00 00 00 00 00 00 00 00 00 00 00 00 00  |................|
 F207  00 00 00 00 00 00 00 00 00 00 00 00 00 00 00 00  |................|
 F217  00 00 00 00 00 00 00 00 00 00 00 00 00 00 00 00  |................|
 F227  00 00 00 00 00 00 00 00 00 00 00 00 00 00 00 00  |................|
 F237  00 00 00 00 00 00 00 00 00 00 00 00 00 00 00 00  |................|
 F247  00 00 00 00 00 00 00 00 00 00 00 00 00 00 00 00  |................|
 F257  00 00 00 00 00 00 00 00 00 00 00 00 00 00 00 00  |................|
 F267  00 00 00 00 00 00 00 00 00 00 00 00 00 00 00 00  |................|
 F277  00 00 00 00 00 00 00 00 00 00 00 00 00 00 00 00  |................|
 F287  00 00 00 00 00 00 00 00 00 00 00 00 00 00 00 00  |................|
 F297  00 00 00 00 00 00 00 00 00 00 00 00 00 00 00 00  |................|
 F2A7  00 00 00 00 00 00 00 00 00 00 00 00 00 00 00 00  |................|
 F2B7  00 00 00 00 00 00 00 00 00 00 00 00 00 00 00 00  |................|
 F2C7  00 00 00 00 00 00 00 00 00 00 00 00 00 00 00 00  |................|
 F2D7  00 00 00 00 00 00 00 00 00 00 00 00 00 00 00 00  |................|
 F2E7  00 00 00 00 00 00 00 00 00 00 00 00 00 00 00 00  |................|
 F2F7  00 00 00 00 00 00 00 00 00 00 00 00 00 00 00 00  |................|
 F307  00 00 00 00 00 00 00 00 00 00 00 00 00 00 00 00  |................|
 F317  00 00 00 00 00 00 00 00 00 00 00 00 00 00 00 00  |................|
 F327  00 00 00 00 00 00 00 00 00 00 00 00 00 00 00 00  |................|
 F337  00 00 00 00 00 00 00 00 00 00 00 00 00 00 00 00  |................|
 F347  00 00 00 00 00 00 00 00 00 00 00 00 00 00 00 00  |................|
 F357  00 00 00 00 00 00 00 00 00 00 00 00 00 00 00 00  |................|
 F367  00 00 00 00 00 00 00 00 00 00 00 00 00 00 00 00  |................|
 F377  00 00 00 00 00 00 00 00 00 00 00 00 00 00 00 00  |................|
 F387  00 00 00 00 00 00 00 00 00 00 00 00 00 00 00 00  |................|
 F397  00 00 00 00 00 00 00 00 00 00 00 00 00 00 00 00  |................|
 F3A7  00 00 00 00 00 00 00 00 00 00 00 00 00 00 00 00  |................|
 F3B7  00 00 00 00 00 00 00 00 00 00 00 00 00 00 00 00  |................|
 F3C7  00 00 00 00 00 00 00 00 00 00 00 00 00 00 00 00  |................|
 F3D7  00 00 00 00 00 00 00 00 00 00 00 00 00 00 00 00  |................|
 F3E7  00 00 00 00 00 00 00 00 00 00 00 00 00 00 00 00  |................|
 F3F7  00 00 00 00 00 00 00 00 00 00 00 00 00 00 00 00  |................|
 F407  00 00 00 00 00 00 00 00 00 00 00 00 00 00 00 00  |................|
 F417  00 00 00 00 00 00 00 00 00 00 00 00 00 00 00 00  |................|
 F427  00 00 00 00 00 00 00 00 00 00 00 00 00 00 00 00  |................|
 F437  00 00 00 00 00 00 00 00 00 00 00 00 00 00 00 00  |................|
 F447  00 00 00 00 00 00 00 00 00 00 00 00 00 00 00 00  |................|
 F457  00 00 00 00 00 00 00 00 00 00 00 00 00 00 00 00  |................|
 F467  00 00 00 00 00 00 00 00 00 00 00 00 00 00 00 00  |................|
 F477  00 00 00 00 00 00 00 00 00 00 00 00 00 00 00 00  |................|
 F487  00 00 00 00 00 00 00 00 00 00 00 00 00 00 00 00  |................|
 F497  00 00 00 00 00 00 00 00 00 00 00 00 00 00 00 00  |................|
 F4A7  00 00 00 00 00 00 00 00 00 00 00 00 00 00 00 00  |................|
 F4B7  00 00 00 00 00 00 00 00 00 00 00 00 00 00 00 00  |................|
 F4C7  00 00 00 00 00 00 00 00 00 00 00 00 00 00 00 00  |................|
 F4D7  00 00 00 00 00 00 00 00 00 00 00 00 00 00 00 00  |................|
 F4E7  00 00 00 00 00 00 00 00 00 00 00 00 00 00 00 00  |................|
 F4F7  00 00 00 00 00 00 00 00 00 00 00 00 00 00 00 00  |................|
 F507  00 00 00 00 00 00 00 00 00 00 00 00 00 00 00 00  |................|
 F517  00 00 00 00 00 00 00 00 00 00 00 00 00 00 00 00  |................|
 F527  00 00 00 00 00 00 00 00 00 00 00 00 00 00 00 00  |................|
 F537  00 00 00 00 00 00 00 00 00 00 00 00 00 00 00 00  |................|
 F547  00 00 00 00 00 00 00 00 00 00 00 00 00 00 00 00  |................|
 F557  00 00 00 00 00 00 00 00 00 00 00 00 00 00 00 00  |................|
 F567  00 00 00 00 00 00 00 00 00 00 00 00 00 00 00 00  |................|
 F577  00 00 00 00 00 00 00 00 00 00 00 00 00 00 00 00  |................|
 F587  00 00 00 00 00 00 00 00 00 00 00 00 00 00 00 00  |................|
 F597  00 00 00 00 00 00 00 00 00 00 00 00 00 00 00 00  |................|
 F5A7  00 00 00 00 00 00 00 00 00 00 00 00 00 00 00 00  |................|
 F5B7  00 00 00 00 00 00 00 00 00 00 00 00 00 00 00 00  |................|
 F5C7  00 00 00 00 00 00 00 00 00 00 00 00 00 00 00 00  |................|
 F5D7  00 00 00 00 00 00 00 00 00 00 00 00 00 00 00 00  |................|
 F5E7  00 00 00 00 00 00 00 00 00 00 00 00 00 00 00 00  |................|
 F5F7  00 00 00 00 00 00 00 00 00 00 00 00 00 00 00 00  |................|
 F607  00 00 00 00 00 00 00 00 00 00 00 00 00 00 00 00  |................|
 F617  00 00 00 00 00 00 00 00 00 00 00 00 00 00 00 00  |................|
 F627  00 00 00 00 00 00 00 00 00 00 00 00 00 00 00 00  |................|
 F637  00 00 00 00 00 00 00 00 00 00 00 00 00 00 00 00  |................|
 F647  00 00 00 00 00 00 00 00 00 00 00 00 00 00 00 00  |................|
 F657  00 00 00 00 00 00 00 00 00 00 00 00 00 00 00 00  |................|
 F667  00 00 00 00 00 00 00 00 00 00 00 00 00 00 00 00  |................|
 F677  00 00 00 00 00 00 00 00 00 00 00 00 00 00 00 00  |................|
 F687  00 00 00 00 00 00 00 00 00 00 00 00 00 00 00 00  |................|
 F697  00 00 00 00 00 00 00 00 00 00 00 00 00 00 00 00  |................|
 F6A7  00 00 00 00 00 00 00 00 00 00 00 00 00 00 00 00  |................|
 F6B7  00 00 00 00 00 00 00 00 00 00 00 00 00 00 00 00  |................|
 F6C7  00 00 00 00 00 00 00 00 00 00 00 00 00 00 00 00  |................|
 F6D7  00 00 00 00 00 00 00 00 00 00 00 00 00 00 00 00  |................|
 F6E7  00 00 00 00 00 00 00 00 00 00 00 00 00 00 00 00  |................|
 F6F7  00 00 00 00 00 00 00 00 00 00 00 00 00 00 00 00  |................|
 F707  00 00 00 00 00 00 00 00 00 00 00 00 00 00 00 00  |................|
 F717  00 00 00 00 00 00 00 00 00 00 00 00 00 00 00 00  |................|
 F727  00 00 00 00 00 00 00 00 00 00 00 00 00 00 00 00  |................|
 F737  00 00 00 00 00 00 00 00 00 00 00 00 00 00 00 00  |................|
 F747  00 00 00 00 00 00 00 00 00 00 00 00 00 00 00 00  |................|
 F757  00 00 00 00 00 00 00 00 00 00 00 00 00 00 00 00  |................|
 F767  00 00 00 00 00 00 00 00 00 00 00 00 00 00 00 00  |................|
 F777  00 00 00 00 00 00 00 00 00 00 00 00 00 00 00 00  |................|
 F787  00 00 00 00 00 00 00 00 00 00 00 00 00 00 00 00  |................|
 F797  00 00 00 00 00 00 00 00 00 00 00 00 00 00 00 00  |................|
 F7A7  00 00 00 00 00 00 00 00 00 00 00 00 00 00 00 00  |................|
 F7B7  00 00 00 00 00 00 00 00 00 00 00 00 00 00 00 00  |................|
 F7C7  00 00 00 00 00 00 00 00 00 00 00 00 00 00 00 00  |................|
 F7D7  00 00 00 00 00 00 00 00 00 00 00 00 00 00 00 00  |................|
 F7E7  00 00 00 00 00 00 00 00 00 00 00 00 00 00 00 00  |................|
 F7F7  00 00 00 00 00 00 00 00 00 00 00 00 00 00 00 00  |................|
 F807  00 00 00 00 00 00 00 00 00 00 00 00 00 00 00 00  |................|
 F817  00 00 00 00 00 00 00 00 00 00 00 00 00 00 00 00  |................|
 F827  00 00 00 00 00 00 00 00 00 00 00 00 00 00 00 00  |................|
 F837  00 00 00 00 00 00 00 00 00 00 00 00 00 00 00 00  |................|
 F847  00 00 00 00 00 00 00 00 00 00 00 00 00 00 00 00  |................|
 F857  00 00 00 00 00 00 00 00 00 00 00 00 00 00 00 00  |................|
 F867  00 00 00 00 00 00 00 00 00 00 00 00 00 00 00 00  |................|
 F877  00 00 00 00 00 00 00 00 00 00 00 00 00 00 00 00  |................|
 F887  00 00 00 00 00 00 00 00 00 00 00 00 00 00 00 00  |................|
 F897  00 00 00 00 00 00 00 00 00 00 00 00 00 00 00 00  |................|
 F8A7  00 00 00 00 00 00 00 00 00 00 00 00 00 00 00 00  |................|
 F8B7  00 00 00 00 00 00 00 00 00 00 00 00 00 00 00 00  |................|
 F8C7  00 00 00 00 00 00 00 00 00 00 00 00 00 00 00 00  |................|
 F8D7  00 00 00 00 00 00 00 00 00 00 00 00 00 00 00 00  |................|
 F8E7  00 00 00 00 00 00 00 00 00 00 00 00 00 00 00 00  |................|
 F8F7  00 00 00 00 00 00 00 00 00 00 00 00 00 00 00 00  |................|
 F907  00 00 00 00 00 00 00 00 00 00 00 00 00 00 00 00  |................|
 F917  00 00 00 00 00 00 00 00 00 00 00 00 00 00 00 00  |................|
 F927  00 00 00 00 00 00 00 00 00 00 00 00 00 00 00 00  |................|
 F937  00 00 00 00 00 00 00 00 00 00 00 00 00 00 00 00  |................|
 F947  00 00 00 00 00 00 00 00 00 00 00 00 00 00 00 00  |................|
 F957  00 00 00 00 00 00 00 00 00 00 00 00 00 00 00 00  |................|
 F967  00 00 00 00 00 00 00 00 00 00 00 00 00 00 00 00  |................|
 F977  00 00 00 00 00 00 00 00 00 00 00 00 00 00 00 00  |................|
 F987  00 00 00 00 00 00 00 00 00 00 00 00 00 00 00 00  |................|
 F997  00 00 00 00 00 00 00 00 00 00 00 00 00 00 00 00  |................|
 F9A7  00 00 00 00 00 00 00 00 00 00 00 00 00 00 00 00  |................|
 F9B7  00 00 00 00 00 00 00 00 00 00 00 00 00 00 00 00  |................|
 F9C7  00 00 00 00 00 00 00 00 00 00 00 00 00 00 00 00  |................|
 F9D7  00 00 00 00 00 00 00 00 00 00 00 00 00 00 00 00  |................|
 F9E7  00 00 00 00 00 00 00 00 00 00 00 00 00 00 00 00  |................|
 F9F7  00 00 00 00 00 00 00 00 00 00 00 00 00 00 00 00  |................|
 FA07  00 00 00 00 00 00 00 00 00 00 00 00 00 00 00 00  |................|
 FA17  00 00 00 00 00 00 00 00 00 00 00 00 00 00 00 00  |................|
 FA27  00 00 00 00 00 00 00 00 00 00 00 00 00 00 00 00  |................|
 FA37  00 00 00 00 00 00 00 00 00 00 00 00 00 00 00 00  |................|
 FA47  00 00 00 00 00 00 00 00 00 00 00 00 00 00 00 00  |................|
 FA57  00 00 00 00 00 00 00 00 00 00 00 00 00 00 00 00  |................|
 FA67  00 00 00 00 00 00 00 00 00 00 00 00 00 00 00 00  |................|
 FA77  00 00 00 00 00 00 00 00 00 00 00 00 00 00 00 00  |................|
 FA87  00 00 00 00 00 00 00 00 00 00 00 00 00 00 00 00  |................|
 FA97  00 00 00 00 00 00 00 00 00 00 00 00 00 00 00 00  |................|
 FAA7  00 00 00 00 00 00 00 00 00 00 00 00 00 00 00 00  |................|
 FAB7  00 00 00 00 00 00 00 00 00 00 00 00 00 00 00 00  |................|
 FAC7  00 00 00 00 00 00 00 00 00 00 00 00 00 00 00 00  |................|
 FAD7  00 00 00 00 00 00 00 00 00 00 00 00 00 00 00 00  |................|
 FAE7  00 00 00 00 00 00 00 00 00 00 00 00 00 00 00 00  |................|
 FAF7  00 00 00 00 00 00 00 00 00 00 00 00 00 00 00 00  |................|
 FB07  00 00 00 00 00 00 00 00 00 00 00 00 00 00 00 00  |................|
 FB17  00 00 00 00 00 00 00 00 00 00 00 00 00 00 00 00  |................|
 FB27  00 00 00 00 00 00 00 00 00 00 00 00 00 00 00 00  |................|
 FB37  00 00 00 00 00 00 00 00 00 00 00 00 00 00 00 00  |................|
 FB47  00 00 00 00 00 00 00 00 00 00 00 00 00 00 00 00  |................|
 FB57  00 00 00 00 00 00 00 00 00 00 00 00 00 00 00 00  |................|
 FB67  00 00 00 00 00 00 00 00 00 00 00 00 00 00 00 00  |................|
 FB77  00 00 00 00 00 00 00 00 00 00 00 00 00 00 00 00  |................|
 FB87  00 00 00 00 00 00 00 00 00 00 00 00 00 00 00 00  |................|
 FB97  00 00 00 00 00 00 00 00 00 00 00 00 00 00 00 00  |................|
 FBA7  00 00 00 00 00 00 00 00 00 00 00 00 00 00 00 00  |................|
 FBB7  00 00 00 00 00 00 00 00 00 00 00 00 00 00 00 00  |................|
 FBC7  00 00 00 00 00 00 00 00 00 00 00 00 00 00 00 00  |................|
 FBD7  00 00 00 00 00 00 00 00 00 00 00 00 00 00 00 00  |................|
 FBE7  00 00 00 00 00 00 00 00 00 00 00 00 00 00 00 00  |................|
 FBF7  00 00 00 00 00 00 00 00 00 00 00 00 00 00 00 00  |................|
 FC07  00 00 00 00 00 00 00 00 00 00 00 00 00 00 00 00  |................|
 FC17  00 00 00 00 00 00 00 00 00 00 00 00 00 00 00 00  |................|
 FC27  00 00 00 00 00 00 00 00 00 00 00 00 00 00 00 00  |................|
 FC37  00 00 00 00 00 00 00 00 00 00 00 00 00 00 00 00  |................|
 FC47  00 00 00 00 00 00 00 00 00 00 00 00 00 00 00 00  |................|
 FC57  00 00 00 00 00 00 00 00 00 00 00 00 00 00 00 00  |................|
 FC67  00 00 00 00 00 00 00 00 00 00 00 00 00 00 00 00  |................|
 FC77  00 00 00 00 00 00 00 00 00 00 00 00 00 00 00 00  |................|
 FC87  00 00 00 00 00 00 00 00 00 00 00 00 00 00 00 00  |................|
 FC97  00 00 00 00 00 00 00 00 00 00 00 00 00 00 00 00  |................|
 FCA7  00 00 00 00 00 00 00 00 00 00 00 00 00 00 00 00  |................|
 FCB7  00 00 00 00 00 00 00 00 00 00 00 00 00 00 00 00  |................|
 FCC7  00 00 00 00 00 00 00 00 00 00 00 00 00 00 00 00  |................|
 FCD7  00 00 00 00 00 00 00 00 00 00 00 00 00 00 00 00  |................|
 FCE7  00 00 00 00 00 00 00 00 00 00 00 00 00 00 00 00  |................|
 FCF7  00 00 00 00 00 00 00 00 00 00 00 00 00 00 00 00  |................|
 FD07  00 00 00 00 00 00 00 00 00 00 00 00 00 00 00 00  |................|
 FD17  00 00 00 00 00 00 00 00 00 00 00 00 00 00 00 00  |................|
 FD27  00 00 00 00 00 00 00 00 00 00 00 00 00 00 00 00  |................|
 FD37  00 00 00 00 00 00 00 00 00 00 00 00 00 00 00 00  |................|
 FD47  00 00 00 00 00 00 00 00 00 00 00 00 00 00 00 00  |................|
 FD57  00 00 00 00 00 00 00 00 00 00 00 00 00 00 00 00  |................|
 FD67  00 00 00 00 00 00 00 00 00 00 00 00 00 00 00 00  |................|
 FD77  00 00 00 00 00 00 00 00 00 00 00 00 00 00 00 00  |................|
 FD87  00 00 00 00 00 00 00 00 00 00 00 00 00 00 00 00  |................|
 FD97  00 00 00 00 00 00 00 00 00 00 00 00 00 00 00 00  |................|
 FDA7  00 00 00 00 00 00 00 00 00 00 00 00 00 00 00 00  |................|
 FDB7  00 00 00 00 00 00 00 00 00 00 00 00 00 00 00 00  |................|
 FDC7  00 00 00 00 00 00 00 00 00 00 00 00 00 00 00 00  |................|
 FDD7  00 00 00 00 00 00 00 00 00 00 00 00 00 00 00 00  |................|
 FDE7  00 00 00 00 00 00 00 00 00 00 00 00 00 00 00 00  |................|
 FDF7  00 00 00 00 00 00 00 00 00 00 00 00 00 00 00 00  |................|
 FE07  00 00 00 00 00 00 00 00 00 00 00 00 00 00 00 00  |................|
 FE17  00 00 00 00 00 00 00 00 00 00 00 00 00 00 00 00  |................|
 FE27  00 00 00 00 00 00 00 00 00 00 00 00 00 00 00 00  |................|
 FE37  00 00 00 00 00 00 00 00 00 00 00 00 00 00 00 00  |................|
 FE47  00 00 00 00 00 00 00 00 00 00 00 00 00 00 00 00  |................|
 FE57  00 00 00 00 00 00 00 00 00 00 00 00 00 00 00 00  |................|
 FE67  00 00 00 00 00 00 00 00 00 00 00 00 00 00 00 00  |................|
 FE77  00 00 00 00 00 00 00 00 00 00 00 00 00 00 00 00  |................|
 FE87  00 00 00 00 00 00 00 00 00 00 00 00 00 00 00 00  |................|
 FE97  00 00 00 00 00 00 00 00 00 00 00 00 00 00 00 00  |................|
 FEA7  00 00 00 00 00 00 00 00 00 00 00 00 00 00 00 00  |................|
 FEB7  00 00 00 00 00 00 00 00 00 00 00 00 00 00 00 00  |................|
 FEC7  00 00 00 00 00 00 00 00 00 00 00 00 00 00 00 00  |................|
 FED7  00 00 00 00 00 00 00 00 00 00 00 00 00 00 00 00  |................|
 FEE7  00 00 00 00 00 00 00 00 00 00 00 00 00 00 00 00  |................|
 FEF7  00 00 00 00 00 00 00 00 00 00 00 00 00 00 00 00  |................|
 FF07  00 00 00 00 00 00 00 00 00 00 00 00 00 00 00 00  |................|
 FF17  00 00 00 00 00 00 00 00 00 00 00 00 00 00 00 00  |................|
 FF27  00 00 00 00 00 00 00 00 00 00 00 00 00 00 00 00  |................|
 FF37  00 00 00 00 00 00 00 00 00 00 00 00 00 00 00 00  |................|
 FF47  00 00 00 00 00 00 00 00 00 00 00 00 00 00 00 00  |................|
 FF57  00 00 00 00 00 00 00 00 00 00 00 00 00 00 00 00  |................|
 FF67  00 00 00 00 00 00 00 00 00 00 00 00 00 00 00 00  |................|
 FF77  00 00 00 00 00 00 00 00 00 00 00 00 00 00 00 00  |................|
 FF87  00 00 00 00 00 00 00 00 00 00 00 00 00 00 00 00  |................|
 FF97  00 00 00 00 00 00 00 00 00 00 00 00 00 00 00 00  |................|
 FFA7  00 00 00 00 00 00 00 00 00 00 00 00 00 00 00 00  |................|
 FFB7  00 00 00 00 00 00 00 00 00 00 00 00 00 00 00 00  |................|
 FFC7  00 00 00 00 00 00 00 00 00 00 00 00 00 00 00 00  |................|
 FFD7  00 00 00 00 00 00 00 00 00 00 00 00 00 00 00 00  |................|
 FFE7  00 00 00 00 00 00 00 00 00 00 00 00 00 00 00 00  |................|
 FFF7  00 00 00 B0 E8 8F E8 42 E9                       |.......B.       |
